; ModuleID = 'conel'
target datalayout = "e-p:64:64:64-i1:8:8-i8:8:8-i16:16:16-i32:32:32-i64:64:64-f32:32:32-f64:64:64-v64:64:64-v128:128:128-a0:0:64-s0:64:64-f80:128:128-n8:16:32:64-S128"
target triple = "x86_64-unknown-linux-gnu"

%"class.std::ios_base::Init" = type { i8 }
%struct.dim3 = type { i32, i32, i32 }
%"class.std::basic_ostream" = type { i32 (...)**, %"class.std::basic_ios" }
%"class.std::basic_ios" = type { %"class.std::ios_base", %"class.std::basic_ostream"*, i8, i8, %"class.std::basic_streambuf"*, %"class.std::ctype"*, %"class.std::num_put"*, %"class.std::num_get"* }
%"class.std::ios_base" = type { i32 (...)**, i64, i64, i32, i32, i32, %"struct.std::ios_base::_Callback_list"*, %"struct.std::ios_base::_Words", [8 x %"struct.std::ios_base::_Words"], i32, %"struct.std::ios_base::_Words"*, %"class.std::locale" }
%"struct.std::ios_base::_Callback_list" = type { %"struct.std::ios_base::_Callback_list"*, void (i32, %"class.std::ios_base"*, i32)*, i32, i32 }
%"struct.std::ios_base::_Words" = type { i8*, i64 }
%"class.std::locale" = type { %"class.std::locale::_Impl"* }
%"class.std::locale::_Impl" = type { i32, %"class.std::locale::facet"**, i64, %"class.std::locale::facet"**, i8** }
%"class.std::locale::facet" = type { i32 (...)**, i32 }
%"class.std::basic_streambuf" = type { i32 (...)**, i8*, i8*, i8*, i8*, i8*, i8*, %"class.std::locale" }
%"class.std::ctype" = type { %"class.std::locale::facet", %struct.__locale_struct*, i8, i32*, i32*, i16*, i8, [256 x i8], [256 x i8], i8 }
%struct.__locale_struct = type { [13 x %struct.__locale_data*], i16*, i32*, i32*, [13 x i8*] }
%struct.__locale_data = type opaque
%"class.std::num_put" = type { %"class.std::locale::facet" }
%"class.std::num_get" = type { %"class.std::locale::facet" }

@_ZStL8__ioinit = internal global %"class.std::ios_base::Init" zeroinitializer, align 1
@__dso_handle = external global i8
@threadIdx = external global %struct.dim3
@blockIdx = external global %struct.dim3
@blockDim = external global %struct.dim3
@_ZSt4cout = external global %"class.std::basic_ostream"
@.str = private unnamed_addr constant [2 x i8] c" \00", align 1
@llvm.global_ctors = appending global [1 x { i32, void ()* }] [{ i32, void ()* } { i32 65535, void ()* @_GLOBAL__I_a }]

define internal void @__cxx_global_var_init() section ".text.startup" {
  call void @_ZNSt8ios_base4InitC1Ev(%"class.std::ios_base::Init"* @_ZStL8__ioinit), !dbg !1046
  %1 = call i32 @__cxa_atexit(void (i8*)* bitcast (void (%"class.std::ios_base::Init"*)* @_ZNSt8ios_base4InitD1Ev to void (i8*)*), i8* getelementptr inbounds (%"class.std::ios_base::Init"* @_ZStL8__ioinit, i32 0, i32 0), i8* @__dso_handle) nounwind, !dbg !1046
  ret void, !dbg !1046
}

declare void @_ZNSt8ios_base4InitC1Ev(%"class.std::ios_base::Init"*)

declare void @_ZNSt8ios_base4InitD1Ev(%"class.std::ios_base::Init"*)

declare i32 @__cxa_atexit(void (i8*)*, i8*, i8*) nounwind

define void @_Z7colonelPi(i32* %in) nounwind uwtable noinline {
  %1 = alloca i32*, align 8
  %tidx = alloca i32, align 4
  store i32* %in, i32** %1, align 8
  call void @llvm.dbg.declare(metadata !{i32** %1}, metadata !1047), !dbg !1048
  call void @llvm.dbg.declare(metadata !{i32* %tidx}, metadata !1049), !dbg !1051
  %2 = load i32* getelementptr inbounds (%struct.dim3* @threadIdx, i32 0, i32 0), align 4, !dbg !1051
  %3 = load i32* getelementptr inbounds (%struct.dim3* @blockIdx, i32 0, i32 0), align 4, !dbg !1051
  %4 = load i32* getelementptr inbounds (%struct.dim3* @blockDim, i32 0, i32 0), align 4, !dbg !1051
  %5 = mul i32 %3, %4, !dbg !1051
  %6 = add i32 %2, %5, !dbg !1051
  store i32 %6, i32* %tidx, align 4, !dbg !1051
  %7 = load i32* %tidx, align 4, !dbg !1052
  %8 = srem i32 %7, 50, !dbg !1052
  %9 = sext i32 %8 to i64, !dbg !1052
  %10 = load i32** %1, align 8, !dbg !1052
  %11 = getelementptr inbounds i32* %10, i64 %9, !dbg !1052
  %12 = load i32* %11, align 4, !dbg !1052
  %13 = add nsw i32 %12, 1, !dbg !1052
  store i32 %13, i32* %11, align 4, !dbg !1052
  ret void, !dbg !1053
}

declare void @llvm.dbg.declare(metadata, metadata) nounwind readnone

define i32 @main() uwtable {
  %1 = alloca i32, align 4
  %in = alloca i32*, align 8
  %din = alloca i32*, align 8
  %2 = alloca %struct.dim3, align 4
  %3 = alloca %struct.dim3, align 4
  %4 = alloca { i64, i32 }
  %5 = alloca { i64, i32 }
  %i = alloca i32, align 4
  store i32 0, i32* %1
  call void @llvm.dbg.declare(metadata !{i32** %in}, metadata !1054), !dbg !1056
  %6 = call noalias i8* @calloc(i64 50, i64 4) nounwind, !dbg !1056
  %7 = bitcast i8* %6 to i32*, !dbg !1056
  store i32* %7, i32** %in, align 8, !dbg !1056
  call void @llvm.dbg.declare(metadata !{i32** %din}, metadata !1057), !dbg !1058
  %8 = bitcast i32** %din to i8**, !dbg !1059
  %9 = call i32 @cudaMalloc(i8** %8, i64 200), !dbg !1059
  %10 = load i32** %din, align 8, !dbg !1060
  %11 = bitcast i32* %10 to i8*, !dbg !1060
  %12 = load i32** %in, align 8, !dbg !1060
  %13 = bitcast i32* %12 to i8*, !dbg !1060
  %14 = call i32 @cudaMemcpy(i8* %11, i8* %13, i64 200, i32 1), !dbg !1060
  call void @_ZN4dim3C1Ejjj(%struct.dim3* %2, i32 2, i32 1, i32 1), !dbg !1061
  call void @_ZN4dim3C1Ejjj(%struct.dim3* %3, i32 128, i32 1, i32 1), !dbg !1061
  %15 = bitcast { i64, i32 }* %4 to i8*, !dbg !1061
  %16 = bitcast %struct.dim3* %2 to i8*, !dbg !1061
  call void @llvm.memcpy.p0i8.p0i8.i64(i8* %15, i8* %16, i64 12, i32 0, i1 false), !dbg !1061
  %17 = getelementptr { i64, i32 }* %4, i32 0, i32 0, !dbg !1061
  %18 = load i64* %17, align 1, !dbg !1061
  %19 = getelementptr { i64, i32 }* %4, i32 0, i32 1, !dbg !1061
  %20 = load i32* %19, align 1, !dbg !1061
  %21 = bitcast { i64, i32 }* %5 to i8*, !dbg !1061
  %22 = bitcast %struct.dim3* %3 to i8*, !dbg !1061
  call void @llvm.memcpy.p0i8.p0i8.i64(i8* %21, i8* %22, i64 12, i32 0, i1 false), !dbg !1061
  %23 = getelementptr { i64, i32 }* %5, i32 0, i32 0, !dbg !1061
  %24 = load i64* %23, align 1, !dbg !1061
  %25 = getelementptr { i64, i32 }* %5, i32 0, i32 1, !dbg !1061
  %26 = load i32* %25, align 1, !dbg !1061
  call void (i64, i32, i64, i32, ...)* @__set_CUDAConfig(i64 %18, i32 %20, i64 %24, i32 %26), !dbg !1061
  %27 = load i32** %din, align 8, !dbg !1063
  call void @_Z7colonelPi(i32* %27), !dbg !1063
  %28 = load i32** %in, align 8, !dbg !1064
  %29 = bitcast i32* %28 to i8*, !dbg !1064
  %30 = load i32** %din, align 8, !dbg !1064
  %31 = bitcast i32* %30 to i8*, !dbg !1064
  %32 = call i32 @cudaMemcpy(i8* %29, i8* %31, i64 200, i32 2), !dbg !1064
  call void @llvm.dbg.declare(metadata !{i32* %i}, metadata !1065), !dbg !1067
  store i32 0, i32* %i, align 4, !dbg !1067
  br label %33, !dbg !1067

; <label>:33                                      ; preds = %44, %0
  %34 = load i32* %i, align 4, !dbg !1067
  %35 = icmp slt i32 %34, 50, !dbg !1067
  br i1 %35, label %36, label %47, !dbg !1067

; <label>:36                                      ; preds = %33
  %37 = load i32* %i, align 4, !dbg !1068
  %38 = sext i32 %37 to i64, !dbg !1068
  %39 = load i32** %in, align 8, !dbg !1068
  %40 = getelementptr inbounds i32* %39, i64 %38, !dbg !1068
  %41 = load i32* %40, align 4, !dbg !1068
  %42 = call %"class.std::basic_ostream"* @_ZNSolsEi(%"class.std::basic_ostream"* @_ZSt4cout, i32 %41), !dbg !1068
  %43 = call %"class.std::basic_ostream"* @_ZStlsISt11char_traitsIcEERSt13basic_ostreamIcT_ES5_PKc(%"class.std::basic_ostream"* %42, i8* getelementptr inbounds ([2 x i8]* @.str, i32 0, i32 0)), !dbg !1068
  br label %44, !dbg !1068

; <label>:44                                      ; preds = %36
  %45 = load i32* %i, align 4, !dbg !1067
  %46 = add nsw i32 %45, 1, !dbg !1067
  store i32 %46, i32* %i, align 4, !dbg !1067
  br label %33, !dbg !1067

; <label>:47                                      ; preds = %33
  %48 = call %"class.std::basic_ostream"* @_ZNSolsEPFRSoS_E(%"class.std::basic_ostream"* @_ZSt4cout, %"class.std::basic_ostream"* (%"class.std::basic_ostream"*)* @_ZSt4endlIcSt11char_traitsIcEERSt13basic_ostreamIT_T0_ES6_), !dbg !1069
  %49 = load i32** %in, align 8, !dbg !1070
  %50 = bitcast i32* %49 to i8*, !dbg !1070
  call void @free(i8* %50) nounwind, !dbg !1070
  %51 = load i32** %din, align 8, !dbg !1070
  %52 = bitcast i32* %51 to i8*, !dbg !1070
  %53 = call i32 @cudaFree(i8* %52), !dbg !1070
  %54 = load i32* %1, !dbg !1071
  ret i32 %54, !dbg !1071
}

declare noalias i8* @calloc(i64, i64) nounwind

declare i32 @cudaMalloc(i8**, i64) section "__device__"

declare i32 @cudaMemcpy(i8*, i8*, i64, i32)

declare void @__set_CUDAConfig(i64, i32, i64, i32, ...)

define linkonce_odr void @_ZN4dim3C1Ejjj(%struct.dim3* %this, i32 %vx, i32 %vy, i32 %vz) unnamed_addr uwtable section "__device__" align 2 {
  %1 = alloca %struct.dim3*, align 8
  %2 = alloca i32, align 4
  %3 = alloca i32, align 4
  %4 = alloca i32, align 4
  store %struct.dim3* %this, %struct.dim3** %1, align 8
  call void @llvm.dbg.declare(metadata !{%struct.dim3** %1}, metadata !1072), !dbg !1074
  store i32 %vx, i32* %2, align 4
  call void @llvm.dbg.declare(metadata !{i32* %2}, metadata !1075), !dbg !1074
  store i32 %vy, i32* %3, align 4
  call void @llvm.dbg.declare(metadata !{i32* %3}, metadata !1076), !dbg !1074
  store i32 %vz, i32* %4, align 4
  call void @llvm.dbg.declare(metadata !{i32* %4}, metadata !1077), !dbg !1074
  %5 = load %struct.dim3** %1
  %6 = load i32* %2, align 4, !dbg !1074
  %7 = load i32* %3, align 4, !dbg !1074
  %8 = load i32* %4, align 4, !dbg !1074
  call void @_ZN4dim3C2Ejjj(%struct.dim3* %5, i32 %6, i32 %7, i32 %8), !dbg !1074
  ret void, !dbg !1074
}

declare void @llvm.memcpy.p0i8.p0i8.i64(i8* nocapture, i8* nocapture, i64, i32, i1) nounwind

declare %"class.std::basic_ostream"* @_ZStlsISt11char_traitsIcEERSt13basic_ostreamIcT_ES5_PKc(%"class.std::basic_ostream"*, i8*)

declare %"class.std::basic_ostream"* @_ZNSolsEi(%"class.std::basic_ostream"*, i32)

declare %"class.std::basic_ostream"* @_ZNSolsEPFRSoS_E(%"class.std::basic_ostream"*, %"class.std::basic_ostream"* (%"class.std::basic_ostream"*)*)

declare %"class.std::basic_ostream"* @_ZSt4endlIcSt11char_traitsIcEERSt13basic_ostreamIT_T0_ES6_(%"class.std::basic_ostream"*)

declare void @free(i8*) nounwind

declare i32 @cudaFree(i8*) section "__device__"

define linkonce_odr void @_ZN4dim3C2Ejjj(%struct.dim3* %this, i32 %vx, i32 %vy, i32 %vz) unnamed_addr nounwind uwtable section "__device__" align 2 {
  %1 = alloca %struct.dim3*, align 8
  %2 = alloca i32, align 4
  %3 = alloca i32, align 4
  %4 = alloca i32, align 4
  store %struct.dim3* %this, %struct.dim3** %1, align 8
  call void @llvm.dbg.declare(metadata !{%struct.dim3** %1}, metadata !1078), !dbg !1079
  store i32 %vx, i32* %2, align 4
  call void @llvm.dbg.declare(metadata !{i32* %2}, metadata !1080), !dbg !1079
  store i32 %vy, i32* %3, align 4
  call void @llvm.dbg.declare(metadata !{i32* %3}, metadata !1081), !dbg !1079
  store i32 %vz, i32* %4, align 4
  call void @llvm.dbg.declare(metadata !{i32* %4}, metadata !1082), !dbg !1079
  %5 = load %struct.dim3** %1
  %6 = getelementptr inbounds %struct.dim3* %5, i32 0, i32 0, !dbg !1079
  %7 = load i32* %2, align 4, !dbg !1079
  store i32 %7, i32* %6, align 4, !dbg !1079
  %8 = getelementptr inbounds %struct.dim3* %5, i32 0, i32 1, !dbg !1079
  %9 = load i32* %3, align 4, !dbg !1079
  store i32 %9, i32* %8, align 4, !dbg !1079
  %10 = getelementptr inbounds %struct.dim3* %5, i32 0, i32 2, !dbg !1079
  %11 = load i32* %4, align 4, !dbg !1079
  store i32 %11, i32* %10, align 4, !dbg !1079
  ret void, !dbg !1083
}

define internal void @_GLOBAL__I_a() section ".text.startup" {
  call void @__cxx_global_var_init(), !dbg !1085
  ret void, !dbg !1085
}

!llvm.dbg.cu = !{!0}

!0 = metadata !{i32 786449, i32 0, i32 4, metadata !"conel.cpp", metadata !"/home/mingyuanwu/gklee", metadata !"clang version 3.2 (tags/RELEASE_32/final)", i1 true, i1 false, metadata !"", i32 0, metadata !1, metadata !932, metadata !933, metadata !987} ; [ DW_TAG_compile_unit ] [/home/mingyuanwu/gklee/conel.cpp] [DW_LANG_C_plus_plus]
!1 = metadata !{metadata !2}
!2 = metadata !{metadata !3, metadata !28, metadata !37, metadata !48, metadata !54, metadata !924}
!3 = metadata !{i32 786436, metadata !4, metadata !"_Ios_Fmtflags", metadata !5, i32 56, i64 32, i64 32, i32 0, i32 0, null, metadata !6, i32 0, i32 0} ; [ DW_TAG_enumeration_type ] [_Ios_Fmtflags] [line 56, size 32, align 32, offset 0] [from ]
!4 = metadata !{i32 786489, null, metadata !"std", metadata !5, i32 48} ; [ DW_TAG_namespace ] [/home/mingyuanwu/gklee//usr/lib/gcc/x86_64-linux-gnu/5.4.0/../../../../include/c++/5.4.0/bits/ios_base.h]
!5 = metadata !{i32 786473, metadata !"/usr/lib/gcc/x86_64-linux-gnu/5.4.0/../../../../include/c++/5.4.0/bits/ios_base.h", metadata !"/home/mingyuanwu/gklee", null} ; [ DW_TAG_file_type ]
!6 = metadata !{metadata !7, metadata !8, metadata !9, metadata !10, metadata !11, metadata !12, metadata !13, metadata !14, metadata !15, metadata !16, metadata !17, metadata !18, metadata !19, metadata !20, metadata !21, metadata !22, metadata !23, metadata !24, metadata !25, metadata !26, metadata !27}
!7 = metadata !{i32 786472, metadata !"_S_boolalpha", i64 1} ; [ DW_TAG_enumerator ] [_S_boolalpha :: 1]
!8 = metadata !{i32 786472, metadata !"_S_dec", i64 2} ; [ DW_TAG_enumerator ] [_S_dec :: 2]
!9 = metadata !{i32 786472, metadata !"_S_fixed", i64 4} ; [ DW_TAG_enumerator ] [_S_fixed :: 4]
!10 = metadata !{i32 786472, metadata !"_S_hex", i64 8} ; [ DW_TAG_enumerator ] [_S_hex :: 8]
!11 = metadata !{i32 786472, metadata !"_S_internal", i64 16} ; [ DW_TAG_enumerator ] [_S_internal :: 16]
!12 = metadata !{i32 786472, metadata !"_S_left", i64 32} ; [ DW_TAG_enumerator ] [_S_left :: 32]
!13 = metadata !{i32 786472, metadata !"_S_oct", i64 64} ; [ DW_TAG_enumerator ] [_S_oct :: 64]
!14 = metadata !{i32 786472, metadata !"_S_right", i64 128} ; [ DW_TAG_enumerator ] [_S_right :: 128]
!15 = metadata !{i32 786472, metadata !"_S_scientific", i64 256} ; [ DW_TAG_enumerator ] [_S_scientific :: 256]
!16 = metadata !{i32 786472, metadata !"_S_showbase", i64 512} ; [ DW_TAG_enumerator ] [_S_showbase :: 512]
!17 = metadata !{i32 786472, metadata !"_S_showpoint", i64 1024} ; [ DW_TAG_enumerator ] [_S_showpoint :: 1024]
!18 = metadata !{i32 786472, metadata !"_S_showpos", i64 2048} ; [ DW_TAG_enumerator ] [_S_showpos :: 2048]
!19 = metadata !{i32 786472, metadata !"_S_skipws", i64 4096} ; [ DW_TAG_enumerator ] [_S_skipws :: 4096]
!20 = metadata !{i32 786472, metadata !"_S_unitbuf", i64 8192} ; [ DW_TAG_enumerator ] [_S_unitbuf :: 8192]
!21 = metadata !{i32 786472, metadata !"_S_uppercase", i64 16384} ; [ DW_TAG_enumerator ] [_S_uppercase :: 16384]
!22 = metadata !{i32 786472, metadata !"_S_adjustfield", i64 176} ; [ DW_TAG_enumerator ] [_S_adjustfield :: 176]
!23 = metadata !{i32 786472, metadata !"_S_basefield", i64 74} ; [ DW_TAG_enumerator ] [_S_basefield :: 74]
!24 = metadata !{i32 786472, metadata !"_S_floatfield", i64 260} ; [ DW_TAG_enumerator ] [_S_floatfield :: 260]
!25 = metadata !{i32 786472, metadata !"_S_ios_fmtflags_end", i64 65536} ; [ DW_TAG_enumerator ] [_S_ios_fmtflags_end :: 65536]
!26 = metadata !{i32 786472, metadata !"_S_ios_fmtflags_max", i64 2147483647} ; [ DW_TAG_enumerator ] [_S_ios_fmtflags_max :: 2147483647]
!27 = metadata !{i32 786472, metadata !"_S_ios_fmtflags_min", i64 2147483648} ; [ DW_TAG_enumerator ] [_S_ios_fmtflags_min :: 2147483648]
!28 = metadata !{i32 786436, metadata !4, metadata !"_Ios_Iostate", metadata !5, i32 152, i64 32, i64 32, i32 0, i32 0, null, metadata !29, i32 0, i32 0} ; [ DW_TAG_enumeration_type ] [_Ios_Iostate] [line 152, size 32, align 32, offset 0] [from ]
!29 = metadata !{metadata !30, metadata !31, metadata !32, metadata !33, metadata !34, metadata !35, metadata !36}
!30 = metadata !{i32 786472, metadata !"_S_goodbit", i64 0} ; [ DW_TAG_enumerator ] [_S_goodbit :: 0]
!31 = metadata !{i32 786472, metadata !"_S_badbit", i64 1} ; [ DW_TAG_enumerator ] [_S_badbit :: 1]
!32 = metadata !{i32 786472, metadata !"_S_eofbit", i64 2} ; [ DW_TAG_enumerator ] [_S_eofbit :: 2]
!33 = metadata !{i32 786472, metadata !"_S_failbit", i64 4} ; [ DW_TAG_enumerator ] [_S_failbit :: 4]
!34 = metadata !{i32 786472, metadata !"_S_ios_iostate_end", i64 65536} ; [ DW_TAG_enumerator ] [_S_ios_iostate_end :: 65536]
!35 = metadata !{i32 786472, metadata !"_S_ios_iostate_max", i64 2147483647} ; [ DW_TAG_enumerator ] [_S_ios_iostate_max :: 2147483647]
!36 = metadata !{i32 786472, metadata !"_S_ios_iostate_min", i64 2147483648} ; [ DW_TAG_enumerator ] [_S_ios_iostate_min :: 2147483648]
!37 = metadata !{i32 786436, metadata !4, metadata !"_Ios_Openmode", metadata !5, i32 110, i64 32, i64 32, i32 0, i32 0, null, metadata !38, i32 0, i32 0} ; [ DW_TAG_enumeration_type ] [_Ios_Openmode] [line 110, size 32, align 32, offset 0] [from ]
!38 = metadata !{metadata !39, metadata !40, metadata !41, metadata !42, metadata !43, metadata !44, metadata !45, metadata !46, metadata !47}
!39 = metadata !{i32 786472, metadata !"_S_app", i64 1} ; [ DW_TAG_enumerator ] [_S_app :: 1]
!40 = metadata !{i32 786472, metadata !"_S_ate", i64 2} ; [ DW_TAG_enumerator ] [_S_ate :: 2]
!41 = metadata !{i32 786472, metadata !"_S_bin", i64 4} ; [ DW_TAG_enumerator ] [_S_bin :: 4]
!42 = metadata !{i32 786472, metadata !"_S_in", i64 8} ; [ DW_TAG_enumerator ] [_S_in :: 8]
!43 = metadata !{i32 786472, metadata !"_S_out", i64 16} ; [ DW_TAG_enumerator ] [_S_out :: 16]
!44 = metadata !{i32 786472, metadata !"_S_trunc", i64 32} ; [ DW_TAG_enumerator ] [_S_trunc :: 32]
!45 = metadata !{i32 786472, metadata !"_S_ios_openmode_end", i64 65536} ; [ DW_TAG_enumerator ] [_S_ios_openmode_end :: 65536]
!46 = metadata !{i32 786472, metadata !"_S_ios_openmode_max", i64 2147483647} ; [ DW_TAG_enumerator ] [_S_ios_openmode_max :: 2147483647]
!47 = metadata !{i32 786472, metadata !"_S_ios_openmode_min", i64 2147483648} ; [ DW_TAG_enumerator ] [_S_ios_openmode_min :: 2147483648]
!48 = metadata !{i32 786436, metadata !4, metadata !"_Ios_Seekdir", metadata !5, i32 192, i64 32, i64 32, i32 0, i32 0, null, metadata !49, i32 0, i32 0} ; [ DW_TAG_enumeration_type ] [_Ios_Seekdir] [line 192, size 32, align 32, offset 0] [from ]
!49 = metadata !{metadata !50, metadata !51, metadata !52, metadata !53}
!50 = metadata !{i32 786472, metadata !"_S_beg", i64 0} ; [ DW_TAG_enumerator ] [_S_beg :: 0]
!51 = metadata !{i32 786472, metadata !"_S_cur", i64 1} ; [ DW_TAG_enumerator ] [_S_cur :: 1]
!52 = metadata !{i32 786472, metadata !"_S_end", i64 2} ; [ DW_TAG_enumerator ] [_S_end :: 2]
!53 = metadata !{i32 786472, metadata !"_S_ios_seekdir_end", i64 65536} ; [ DW_TAG_enumerator ] [_S_ios_seekdir_end :: 65536]
!54 = metadata !{i32 786436, metadata !55, metadata !"event", metadata !5, i32 486, i64 32, i64 32, i32 0, i32 0, null, metadata !920, i32 0, i32 0} ; [ DW_TAG_enumeration_type ] [event] [line 486, size 32, align 32, offset 0] [from ]
!55 = metadata !{i32 786434, metadata !4, metadata !"ios_base", metadata !5, i32 227, i64 1728, i64 64, i32 0, i32 0, null, metadata !56, i32 0, metadata !55, null} ; [ DW_TAG_class_type ] [ios_base] [line 227, size 1728, align 64, offset 0] [from ]
!56 = metadata !{metadata !57, metadata !63, metadata !71, metadata !72, metadata !74, metadata !76, metadata !77, metadata !80, metadata !92, metadata !96, metadata !97, metadata !99, metadata !847, metadata !856, metadata !859, metadata !862, metadata !866, metadata !867, metadata !872, metadata !875, metadata !876, metadata !879, metadata !882, metadata !885, metadata !888, metadata !889, metadata !890, metadata !893, metadata !896, metadata !899, metadata !902, metadata !903, metadata !907, metadata !911, metadata !912, metadata !913, metadata !917}
!57 = metadata !{i32 786445, metadata !5, metadata !"_vptr$ios_base", metadata !5, i32 0, i64 64, i64 0, i64 0, i32 0, metadata !58} ; [ DW_TAG_member ] [_vptr$ios_base] [line 0, size 64, align 0, offset 0] [from ]
!58 = metadata !{i32 786447, null, metadata !"", null, i32 0, i64 64, i64 0, i64 0, i32 0, metadata !59} ; [ DW_TAG_pointer_type ] [line 0, size 64, align 0, offset 0] [from __vtbl_ptr_type]
!59 = metadata !{i32 786447, null, metadata !"__vtbl_ptr_type", null, i32 0, i64 64, i64 0, i64 0, i32 0, metadata !60} ; [ DW_TAG_pointer_type ] [__vtbl_ptr_type] [line 0, size 64, align 0, offset 0] [from ]
!60 = metadata !{i32 786453, i32 0, metadata !"", i32 0, i32 0, i64 0, i64 0, i64 0, i32 0, null, metadata !61, i32 0, i32 0} ; [ DW_TAG_subroutine_type ] [line 0, size 0, align 0, offset 0] [from ]
!61 = metadata !{metadata !62}
!62 = metadata !{i32 786468, null, metadata !"int", null, i32 0, i64 32, i64 32, i64 0, i32 0, i32 5} ; [ DW_TAG_base_type ] [int] [line 0, size 32, align 32, offset 0, enc DW_ATE_signed]
!63 = metadata !{i32 786445, metadata !55, metadata !"_M_precision", metadata !5, i32 519, i64 64, i64 64, i64 64, i32 2, metadata !64} ; [ DW_TAG_member ] [_M_precision] [line 519, size 64, align 64, offset 64] [protected] [from streamsize]
!64 = metadata !{i32 786454, metadata !65, metadata !"streamsize", metadata !5, i32 97, i64 0, i64 0, i64 0, i32 0, metadata !67} ; [ DW_TAG_typedef ] [streamsize] [line 97, size 0, align 0, offset 0] [from ptrdiff_t]
!65 = metadata !{i32 786489, null, metadata !"std", metadata !66, i32 67} ; [ DW_TAG_namespace ] [/home/mingyuanwu/gklee//usr/lib/gcc/x86_64-linux-gnu/5.4.0/../../../../include/c++/5.4.0/bits/postypes.h]
!66 = metadata !{i32 786473, metadata !"/usr/lib/gcc/x86_64-linux-gnu/5.4.0/../../../../include/c++/5.4.0/bits/postypes.h", metadata !"/home/mingyuanwu/gklee", null} ; [ DW_TAG_file_type ]
!67 = metadata !{i32 786454, metadata !68, metadata !"ptrdiff_t", metadata !5, i32 197, i64 0, i64 0, i64 0, i32 0, metadata !70} ; [ DW_TAG_typedef ] [ptrdiff_t] [line 197, size 0, align 0, offset 0] [from long int]
!68 = metadata !{i32 786489, null, metadata !"std", metadata !69, i32 194} ; [ DW_TAG_namespace ] [/home/mingyuanwu/gklee//usr/include/x86_64-linux-gnu/c++/5/bits/c++config.h]
!69 = metadata !{i32 786473, metadata !"/usr/include/x86_64-linux-gnu/c++/5/bits/c++config.h", metadata !"/home/mingyuanwu/gklee", null} ; [ DW_TAG_file_type ]
!70 = metadata !{i32 786468, null, metadata !"long int", null, i32 0, i64 64, i64 64, i64 0, i32 0, i32 5} ; [ DW_TAG_base_type ] [long int] [line 0, size 64, align 64, offset 0, enc DW_ATE_signed]
!71 = metadata !{i32 786445, metadata !55, metadata !"_M_width", metadata !5, i32 520, i64 64, i64 64, i64 128, i32 2, metadata !64} ; [ DW_TAG_member ] [_M_width] [line 520, size 64, align 64, offset 128] [protected] [from streamsize]
!72 = metadata !{i32 786445, metadata !55, metadata !"_M_flags", metadata !5, i32 521, i64 32, i64 32, i64 192, i32 2, metadata !73} ; [ DW_TAG_member ] [_M_flags] [line 521, size 32, align 32, offset 192] [protected] [from fmtflags]
!73 = metadata !{i32 786454, metadata !55, metadata !"fmtflags", metadata !5, i32 322, i64 0, i64 0, i64 0, i32 0, metadata !3} ; [ DW_TAG_typedef ] [fmtflags] [line 322, size 0, align 0, offset 0] [from _Ios_Fmtflags]
!74 = metadata !{i32 786445, metadata !55, metadata !"_M_exception", metadata !5, i32 522, i64 32, i64 32, i64 224, i32 2, metadata !75} ; [ DW_TAG_member ] [_M_exception] [line 522, size 32, align 32, offset 224] [protected] [from iostate]
!75 = metadata !{i32 786454, metadata !55, metadata !"iostate", metadata !5, i32 397, i64 0, i64 0, i64 0, i32 0, metadata !28} ; [ DW_TAG_typedef ] [iostate] [line 397, size 0, align 0, offset 0] [from _Ios_Iostate]
!76 = metadata !{i32 786445, metadata !55, metadata !"_M_streambuf_state", metadata !5, i32 523, i64 32, i64 32, i64 256, i32 2, metadata !75} ; [ DW_TAG_member ] [_M_streambuf_state] [line 523, size 32, align 32, offset 256] [protected] [from iostate]
!77 = metadata !{i32 786445, metadata !55, metadata !"_M_callbacks", metadata !5, i32 557, i64 64, i64 64, i64 320, i32 2, metadata !78} ; [ DW_TAG_member ] [_M_callbacks] [line 557, size 64, align 64, offset 320] [protected] [from ]
!78 = metadata !{i32 786447, null, metadata !"", null, i32 0, i64 64, i64 64, i64 0, i32 0, metadata !79} ; [ DW_TAG_pointer_type ] [line 0, size 64, align 64, offset 0] [from _Callback_list]
!79 = metadata !{i32 786451, metadata !55, metadata !"_Callback_list", metadata !5, i32 527, i64 0, i64 0, i32 0, i32 4, null, null, i32 0} ; [ DW_TAG_structure_type ] [_Callback_list] [line 527, size 0, align 0, offset 0] [fwd] [from ]
!80 = metadata !{i32 786445, metadata !55, metadata !"_M_word_zero", metadata !5, i32 574, i64 128, i64 64, i64 384, i32 2, metadata !81} ; [ DW_TAG_member ] [_M_word_zero] [line 574, size 128, align 64, offset 384] [protected] [from _Words]
!81 = metadata !{i32 786451, metadata !55, metadata !"_Words", metadata !5, i32 566, i64 128, i64 64, i32 0, i32 0, null, metadata !82, i32 0, null, null} ; [ DW_TAG_structure_type ] [_Words] [line 566, size 128, align 64, offset 0] [from ]
!82 = metadata !{metadata !83, metadata !85, metadata !86}
!83 = metadata !{i32 786445, metadata !81, metadata !"_M_pword", metadata !5, i32 568, i64 64, i64 64, i64 0, i32 0, metadata !84} ; [ DW_TAG_member ] [_M_pword] [line 568, size 64, align 64, offset 0] [from ]
!84 = metadata !{i32 786447, null, metadata !"", null, i32 0, i64 64, i64 64, i64 0, i32 0, null} ; [ DW_TAG_pointer_type ] [line 0, size 64, align 64, offset 0] [from ]
!85 = metadata !{i32 786445, metadata !81, metadata !"_M_iword", metadata !5, i32 569, i64 64, i64 64, i64 64, i32 0, metadata !70} ; [ DW_TAG_member ] [_M_iword] [line 569, size 64, align 64, offset 64] [from long int]
!86 = metadata !{i32 786478, i32 0, metadata !81, metadata !"_Words", metadata !"_Words", metadata !"", metadata !5, i32 570, metadata !87, i1 false, i1 false, i32 0, i32 0, null, i32 256, i1 false, null, null, i32 0, metadata !90, i32 570} ; [ DW_TAG_subprogram ] [line 570] [_Words]
!87 = metadata !{i32 786453, i32 0, metadata !"", i32 0, i32 0, i64 0, i64 0, i64 0, i32 0, null, metadata !88, i32 0, i32 0} ; [ DW_TAG_subroutine_type ] [line 0, size 0, align 0, offset 0] [from ]
!88 = metadata !{null, metadata !89}
!89 = metadata !{i32 786447, i32 0, metadata !"", i32 0, i32 0, i64 64, i64 64, i64 0, i32 1088, metadata !81} ; [ DW_TAG_pointer_type ] [line 0, size 64, align 64, offset 0] [from _Words]
!90 = metadata !{metadata !91}
!91 = metadata !{i32 786468}                      ; [ DW_TAG_base_type ] [line 0, size 0, align 0, offset 0]
!92 = metadata !{i32 786445, metadata !55, metadata !"_M_local_word", metadata !5, i32 579, i64 1024, i64 64, i64 512, i32 2, metadata !93} ; [ DW_TAG_member ] [_M_local_word] [line 579, size 1024, align 64, offset 512] [protected] [from ]
!93 = metadata !{i32 786433, null, metadata !"", null, i32 0, i64 1024, i64 64, i32 0, i32 0, metadata !81, metadata !94, i32 0, i32 0} ; [ DW_TAG_array_type ] [line 0, size 1024, align 64, offset 0] [from _Words]
!94 = metadata !{metadata !95}
!95 = metadata !{i32 786465, i64 0, i64 7}        ; [ DW_TAG_subrange_type ] [0, 7]
!96 = metadata !{i32 786445, metadata !55, metadata !"_M_word_size", metadata !5, i32 582, i64 32, i64 32, i64 1536, i32 2, metadata !62} ; [ DW_TAG_member ] [_M_word_size] [line 582, size 32, align 32, offset 1536] [protected] [from int]
!97 = metadata !{i32 786445, metadata !55, metadata !"_M_word", metadata !5, i32 583, i64 64, i64 64, i64 1600, i32 2, metadata !98} ; [ DW_TAG_member ] [_M_word] [line 583, size 64, align 64, offset 1600] [protected] [from ]
!98 = metadata !{i32 786447, null, metadata !"", null, i32 0, i64 64, i64 64, i64 0, i32 0, metadata !81} ; [ DW_TAG_pointer_type ] [line 0, size 64, align 64, offset 0] [from _Words]
!99 = metadata !{i32 786445, metadata !55, metadata !"_M_ios_locale", metadata !5, i32 589, i64 64, i64 64, i64 1664, i32 2, metadata !100} ; [ DW_TAG_member ] [_M_ios_locale] [line 589, size 64, align 64, offset 1664] [protected] [from locale]
!100 = metadata !{i32 786434, metadata !101, metadata !"locale", metadata !102, i32 61, i64 64, i64 64, i32 0, i32 0, null, metadata !103, i32 0, null, null} ; [ DW_TAG_class_type ] [locale] [line 61, size 64, align 64, offset 0] [from ]
!101 = metadata !{i32 786489, null, metadata !"std", metadata !102, i32 42} ; [ DW_TAG_namespace ] [/home/mingyuanwu/gklee//usr/lib/gcc/x86_64-linux-gnu/5.4.0/../../../../include/c++/5.4.0/bits/locale_classes.h]
!102 = metadata !{i32 786473, metadata !"/usr/lib/gcc/x86_64-linux-gnu/5.4.0/../../../../include/c++/5.4.0/bits/locale_classes.h", metadata !"/home/mingyuanwu/gklee", null} ; [ DW_TAG_file_type ]
!103 = metadata !{metadata !104, metadata !276, metadata !280, metadata !285, metadata !288, metadata !291, metadata !294, metadata !295, metadata !298, metadata !826, metadata !829, metadata !830, metadata !833, metadata !836, metadata !839, metadata !840, metadata !841, metadata !844, metadata !845, metadata !846}
!104 = metadata !{i32 786445, metadata !100, metadata !"_M_impl", metadata !102, i32 308, i64 64, i64 64, i64 0, i32 1, metadata !105} ; [ DW_TAG_member ] [_M_impl] [line 308, size 64, align 64, offset 0] [private] [from ]
!105 = metadata !{i32 786447, null, metadata !"", null, i32 0, i64 64, i64 64, i64 0, i32 0, metadata !106} ; [ DW_TAG_pointer_type ] [line 0, size 64, align 64, offset 0] [from _Impl]
!106 = metadata !{i32 786434, metadata !100, metadata !"_Impl", metadata !102, i32 512, i64 320, i64 64, i32 0, i32 0, null, metadata !107, i32 0, null, null} ; [ DW_TAG_class_type ] [_Impl] [line 512, size 320, align 64, offset 0] [from ]
!107 = metadata !{metadata !108, metadata !110, metadata !216, metadata !217, metadata !218, metadata !221, metadata !225, metadata !226, metadata !231, metadata !234, metadata !237, metadata !238, metadata !241, metadata !242, metadata !246, metadata !251, metadata !257, metadata !260, metadata !263, metadata !266, metadata !271, metadata !274, metadata !275}
!108 = metadata !{i32 786445, metadata !106, metadata !"_M_refcount", metadata !102, i32 532, i64 32, i64 32, i64 0, i32 1, metadata !109} ; [ DW_TAG_member ] [_M_refcount] [line 532, size 32, align 32, offset 0] [private] [from _Atomic_word]
!109 = metadata !{i32 786454, null, metadata !"_Atomic_word", metadata !102, i32 32, i64 0, i64 0, i64 0, i32 0, metadata !62} ; [ DW_TAG_typedef ] [_Atomic_word] [line 32, size 0, align 0, offset 0] [from int]
!110 = metadata !{i32 786445, metadata !106, metadata !"_M_facets", metadata !102, i32 533, i64 64, i64 64, i64 64, i32 1, metadata !111} ; [ DW_TAG_member ] [_M_facets] [line 533, size 64, align 64, offset 64] [private] [from ]
!111 = metadata !{i32 786447, null, metadata !"", null, i32 0, i64 64, i64 64, i64 0, i32 0, metadata !112} ; [ DW_TAG_pointer_type ] [line 0, size 64, align 64, offset 0] [from ]
!112 = metadata !{i32 786447, null, metadata !"", null, i32 0, i64 64, i64 64, i64 0, i32 0, metadata !113} ; [ DW_TAG_pointer_type ] [line 0, size 64, align 64, offset 0] [from ]
!113 = metadata !{i32 786470, null, metadata !"", null, i32 0, i64 0, i64 0, i64 0, i32 0, metadata !114} ; [ DW_TAG_const_type ] [line 0, size 0, align 0, offset 0] [from facet]
!114 = metadata !{i32 786434, metadata !100, metadata !"facet", metadata !102, i32 370, i64 128, i64 64, i32 0, i32 0, null, metadata !115, i32 0, metadata !114, null} ; [ DW_TAG_class_type ] [facet] [line 370, size 128, align 64, offset 0] [from ]
!115 = metadata !{metadata !116, metadata !117, metadata !118, metadata !121, metadata !128, metadata !131, metadata !162, metadata !165, metadata !168, metadata !171, metadata !174, metadata !177, metadata !181, metadata !182, metadata !186, metadata !190, metadata !213, metadata !214, metadata !215}
!116 = metadata !{i32 786445, metadata !102, metadata !"_vptr$facet", metadata !102, i32 0, i64 64, i64 0, i64 0, i32 0, metadata !58} ; [ DW_TAG_member ] [_vptr$facet] [line 0, size 64, align 0, offset 0] [from ]
!117 = metadata !{i32 786445, metadata !114, metadata !"_M_refcount", metadata !102, i32 376, i64 32, i64 32, i64 64, i32 1, metadata !109} ; [ DW_TAG_member ] [_M_refcount] [line 376, size 32, align 32, offset 64] [private] [from _Atomic_word]
!118 = metadata !{i32 786478, i32 0, metadata !114, metadata !"_S_initialize_once", metadata !"_S_initialize_once", metadata !"_ZNSt6locale5facet18_S_initialize_onceEv", metadata !102, i32 389, metadata !119, i1 false, i1 false, i32 0, i32 0, null, i32 257, i1 false, null, null, i32 0, metadata !90, i32 389} ; [ DW_TAG_subprogram ] [line 389] [_S_initialize_once]
!119 = metadata !{i32 786453, i32 0, metadata !"", i32 0, i32 0, i64 0, i64 0, i64 0, i32 0, null, metadata !120, i32 0, i32 0} ; [ DW_TAG_subroutine_type ] [line 0, size 0, align 0, offset 0] [from ]
!120 = metadata !{null}
!121 = metadata !{i32 786478, i32 0, metadata !114, metadata !"facet", metadata !"facet", metadata !"", metadata !102, i32 402, metadata !122, i1 false, i1 false, i32 0, i32 0, null, i32 386, i1 false, null, null, i32 0, metadata !90, i32 402} ; [ DW_TAG_subprogram ] [line 402] [facet]
!122 = metadata !{i32 786453, i32 0, metadata !"", i32 0, i32 0, i64 0, i64 0, i64 0, i32 0, null, metadata !123, i32 0, i32 0} ; [ DW_TAG_subroutine_type ] [line 0, size 0, align 0, offset 0] [from ]
!123 = metadata !{null, metadata !124, metadata !125}
!124 = metadata !{i32 786447, i32 0, metadata !"", i32 0, i32 0, i64 64, i64 64, i64 0, i32 1088, metadata !114} ; [ DW_TAG_pointer_type ] [line 0, size 64, align 64, offset 0] [from facet]
!125 = metadata !{i32 786454, metadata !68, metadata !"size_t", metadata !126, i32 196, i64 0, i64 0, i64 0, i32 0, metadata !127} ; [ DW_TAG_typedef ] [size_t] [line 196, size 0, align 0, offset 0] [from long unsigned int]
!126 = metadata !{i32 786473, metadata !"/usr/lib/gcc/x86_64-linux-gnu/5.4.0/../../../../include/c++/5.4.0/bits/basic_string.h", metadata !"/home/mingyuanwu/gklee", null} ; [ DW_TAG_file_type ]
!127 = metadata !{i32 786468, null, metadata !"long unsigned int", null, i32 0, i64 64, i64 64, i64 0, i32 0, i32 7} ; [ DW_TAG_base_type ] [long unsigned int] [line 0, size 64, align 64, offset 0, enc DW_ATE_unsigned]
!128 = metadata !{i32 786478, i32 0, metadata !114, metadata !"~facet", metadata !"~facet", metadata !"", metadata !102, i32 407, metadata !129, i1 false, i1 false, i32 1, i32 0, metadata !114, i32 258, i1 false, null, null, i32 0, metadata !90, i32 407} ; [ DW_TAG_subprogram ] [line 407] [~facet]
!129 = metadata !{i32 786453, i32 0, metadata !"", i32 0, i32 0, i64 0, i64 0, i64 0, i32 0, null, metadata !130, i32 0, i32 0} ; [ DW_TAG_subroutine_type ] [line 0, size 0, align 0, offset 0] [from ]
!130 = metadata !{null, metadata !124}
!131 = metadata !{i32 786478, i32 0, metadata !114, metadata !"_S_create_c_locale", metadata !"_S_create_c_locale", metadata !"_ZNSt6locale5facet18_S_create_c_localeERP15__locale_structPKcS2_", metadata !102, i32 410, metadata !132, i1 false, i1 false, i32 0, i32 0, null, i32 258, i1 false, null, null, i32 0, metadata !90, i32 410} ; [ DW_TAG_subprogram ] [line 410] [_S_create_c_locale]
!132 = metadata !{i32 786453, i32 0, metadata !"", i32 0, i32 0, i64 0, i64 0, i64 0, i32 0, null, metadata !133, i32 0, i32 0} ; [ DW_TAG_subroutine_type ] [line 0, size 0, align 0, offset 0] [from ]
!133 = metadata !{null, metadata !134, metadata !159, metadata !135}
!134 = metadata !{i32 786448, null, null, null, i32 0, i64 0, i64 0, i64 0, i32 0, metadata !135} ; [ DW_TAG_reference_type ] [line 0, size 0, align 0, offset 0] [from __c_locale]
!135 = metadata !{i32 786454, metadata !136, metadata !"__c_locale", metadata !102, i32 61, i64 0, i64 0, i64 0, i32 0, metadata !138} ; [ DW_TAG_typedef ] [__c_locale] [line 61, size 0, align 0, offset 0] [from __locale_t]
!136 = metadata !{i32 786489, null, metadata !"std", metadata !137, i32 57} ; [ DW_TAG_namespace ] [/home/mingyuanwu/gklee//usr/include/x86_64-linux-gnu/c++/5/bits/c++locale.h]
!137 = metadata !{i32 786473, metadata !"/usr/include/x86_64-linux-gnu/c++/5/bits/c++locale.h", metadata !"/home/mingyuanwu/gklee", null} ; [ DW_TAG_file_type ]
!138 = metadata !{i32 786454, null, metadata !"__locale_t", metadata !102, i32 39, i64 0, i64 0, i64 0, i32 0, metadata !139} ; [ DW_TAG_typedef ] [__locale_t] [line 39, size 0, align 0, offset 0] [from ]
!139 = metadata !{i32 786447, null, metadata !"", null, i32 0, i64 64, i64 64, i64 0, i32 0, metadata !140} ; [ DW_TAG_pointer_type ] [line 0, size 64, align 64, offset 0] [from __locale_struct]
!140 = metadata !{i32 786451, null, metadata !"__locale_struct", metadata !141, i32 27, i64 1856, i64 64, i32 0, i32 0, null, metadata !142, i32 0, null, null} ; [ DW_TAG_structure_type ] [__locale_struct] [line 27, size 1856, align 64, offset 0] [from ]
!141 = metadata !{i32 786473, metadata !"/usr/include/xlocale.h", metadata !"/home/mingyuanwu/gklee", null} ; [ DW_TAG_file_type ]
!142 = metadata !{metadata !143, metadata !149, metadata !153, metadata !156, metadata !157}
!143 = metadata !{i32 786445, metadata !140, metadata !"__locales", metadata !141, i32 30, i64 832, i64 64, i64 0, i32 0, metadata !144} ; [ DW_TAG_member ] [__locales] [line 30, size 832, align 64, offset 0] [from ]
!144 = metadata !{i32 786433, null, metadata !"", null, i32 0, i64 832, i64 64, i32 0, i32 0, metadata !145, metadata !147, i32 0, i32 0} ; [ DW_TAG_array_type ] [line 0, size 832, align 64, offset 0] [from ]
!145 = metadata !{i32 786447, null, metadata !"", null, i32 0, i64 64, i64 64, i64 0, i32 0, metadata !146} ; [ DW_TAG_pointer_type ] [line 0, size 64, align 64, offset 0] [from __locale_data]
!146 = metadata !{i32 786451, null, metadata !"__locale_data", metadata !141, i32 30, i64 0, i64 0, i32 0, i32 4, null, null, i32 0} ; [ DW_TAG_structure_type ] [__locale_data] [line 30, size 0, align 0, offset 0] [fwd] [from ]
!147 = metadata !{metadata !148}
!148 = metadata !{i32 786465, i64 0, i64 12}      ; [ DW_TAG_subrange_type ] [0, 12]
!149 = metadata !{i32 786445, metadata !140, metadata !"__ctype_b", metadata !141, i32 33, i64 64, i64 64, i64 832, i32 0, metadata !150} ; [ DW_TAG_member ] [__ctype_b] [line 33, size 64, align 64, offset 832] [from ]
!150 = metadata !{i32 786447, null, metadata !"", null, i32 0, i64 64, i64 64, i64 0, i32 0, metadata !151} ; [ DW_TAG_pointer_type ] [line 0, size 64, align 64, offset 0] [from ]
!151 = metadata !{i32 786470, null, metadata !"", null, i32 0, i64 0, i64 0, i64 0, i32 0, metadata !152} ; [ DW_TAG_const_type ] [line 0, size 0, align 0, offset 0] [from unsigned short]
!152 = metadata !{i32 786468, null, metadata !"unsigned short", null, i32 0, i64 16, i64 16, i64 0, i32 0, i32 7} ; [ DW_TAG_base_type ] [unsigned short] [line 0, size 16, align 16, offset 0, enc DW_ATE_unsigned]
!153 = metadata !{i32 786445, metadata !140, metadata !"__ctype_tolower", metadata !141, i32 34, i64 64, i64 64, i64 896, i32 0, metadata !154} ; [ DW_TAG_member ] [__ctype_tolower] [line 34, size 64, align 64, offset 896] [from ]
!154 = metadata !{i32 786447, null, metadata !"", null, i32 0, i64 64, i64 64, i64 0, i32 0, metadata !155} ; [ DW_TAG_pointer_type ] [line 0, size 64, align 64, offset 0] [from ]
!155 = metadata !{i32 786470, null, metadata !"", null, i32 0, i64 0, i64 0, i64 0, i32 0, metadata !62} ; [ DW_TAG_const_type ] [line 0, size 0, align 0, offset 0] [from int]
!156 = metadata !{i32 786445, metadata !140, metadata !"__ctype_toupper", metadata !141, i32 35, i64 64, i64 64, i64 960, i32 0, metadata !154} ; [ DW_TAG_member ] [__ctype_toupper] [line 35, size 64, align 64, offset 960] [from ]
!157 = metadata !{i32 786445, metadata !140, metadata !"__names", metadata !141, i32 38, i64 832, i64 64, i64 1024, i32 0, metadata !158} ; [ DW_TAG_member ] [__names] [line 38, size 832, align 64, offset 1024] [from ]
!158 = metadata !{i32 786433, null, metadata !"", null, i32 0, i64 832, i64 64, i32 0, i32 0, metadata !159, metadata !147, i32 0, i32 0} ; [ DW_TAG_array_type ] [line 0, size 832, align 64, offset 0] [from ]
!159 = metadata !{i32 786447, null, metadata !"", null, i32 0, i64 64, i64 64, i64 0, i32 0, metadata !160} ; [ DW_TAG_pointer_type ] [line 0, size 64, align 64, offset 0] [from ]
!160 = metadata !{i32 786470, null, metadata !"", null, i32 0, i64 0, i64 0, i64 0, i32 0, metadata !161} ; [ DW_TAG_const_type ] [line 0, size 0, align 0, offset 0] [from char]
!161 = metadata !{i32 786468, null, metadata !"char", null, i32 0, i64 8, i64 8, i64 0, i32 0, i32 6} ; [ DW_TAG_base_type ] [char] [line 0, size 8, align 8, offset 0, enc DW_ATE_signed_char]
!162 = metadata !{i32 786478, i32 0, metadata !114, metadata !"_S_clone_c_locale", metadata !"_S_clone_c_locale", metadata !"_ZNSt6locale5facet17_S_clone_c_localeERP15__locale_struct", metadata !102, i32 414, metadata !163, i1 false, i1 false, i32 0, i32 0, null, i32 258, i1 false, null, null, i32 0, metadata !90, i32 414} ; [ DW_TAG_subprogram ] [line 414] [_S_clone_c_locale]
!163 = metadata !{i32 786453, i32 0, metadata !"", i32 0, i32 0, i64 0, i64 0, i64 0, i32 0, null, metadata !164, i32 0, i32 0} ; [ DW_TAG_subroutine_type ] [line 0, size 0, align 0, offset 0] [from ]
!164 = metadata !{metadata !135, metadata !134}
!165 = metadata !{i32 786478, i32 0, metadata !114, metadata !"_S_destroy_c_locale", metadata !"_S_destroy_c_locale", metadata !"_ZNSt6locale5facet19_S_destroy_c_localeERP15__locale_struct", metadata !102, i32 417, metadata !166, i1 false, i1 false, i32 0, i32 0, null, i32 258, i1 false, null, null, i32 0, metadata !90, i32 417} ; [ DW_TAG_subprogram ] [line 417] [_S_destroy_c_locale]
!166 = metadata !{i32 786453, i32 0, metadata !"", i32 0, i32 0, i64 0, i64 0, i64 0, i32 0, null, metadata !167, i32 0, i32 0} ; [ DW_TAG_subroutine_type ] [line 0, size 0, align 0, offset 0] [from ]
!167 = metadata !{null, metadata !134}
!168 = metadata !{i32 786478, i32 0, metadata !114, metadata !"_S_lc_ctype_c_locale", metadata !"_S_lc_ctype_c_locale", metadata !"_ZNSt6locale5facet20_S_lc_ctype_c_localeEP15__locale_structPKc", metadata !102, i32 420, metadata !169, i1 false, i1 false, i32 0, i32 0, null, i32 258, i1 false, null, null, i32 0, metadata !90, i32 420} ; [ DW_TAG_subprogram ] [line 420] [_S_lc_ctype_c_locale]
!169 = metadata !{i32 786453, i32 0, metadata !"", i32 0, i32 0, i64 0, i64 0, i64 0, i32 0, null, metadata !170, i32 0, i32 0} ; [ DW_TAG_subroutine_type ] [line 0, size 0, align 0, offset 0] [from ]
!170 = metadata !{metadata !135, metadata !135, metadata !159}
!171 = metadata !{i32 786478, i32 0, metadata !114, metadata !"_S_get_c_locale", metadata !"_S_get_c_locale", metadata !"_ZNSt6locale5facet15_S_get_c_localeEv", metadata !102, i32 425, metadata !172, i1 false, i1 false, i32 0, i32 0, null, i32 258, i1 false, null, null, i32 0, metadata !90, i32 425} ; [ DW_TAG_subprogram ] [line 425] [_S_get_c_locale]
!172 = metadata !{i32 786453, i32 0, metadata !"", i32 0, i32 0, i64 0, i64 0, i64 0, i32 0, null, metadata !173, i32 0, i32 0} ; [ DW_TAG_subroutine_type ] [line 0, size 0, align 0, offset 0] [from ]
!173 = metadata !{metadata !135}
!174 = metadata !{i32 786478, i32 0, metadata !114, metadata !"_S_get_c_name", metadata !"_S_get_c_name", metadata !"_ZNSt6locale5facet13_S_get_c_nameEv", metadata !102, i32 428, metadata !175, i1 false, i1 false, i32 0, i32 0, null, i32 258, i1 false, null, null, i32 0, metadata !90, i32 428} ; [ DW_TAG_subprogram ] [line 428] [_S_get_c_name]
!175 = metadata !{i32 786453, i32 0, metadata !"", i32 0, i32 0, i64 0, i64 0, i64 0, i32 0, null, metadata !176, i32 0, i32 0} ; [ DW_TAG_subroutine_type ] [line 0, size 0, align 0, offset 0] [from ]
!176 = metadata !{metadata !159}
!177 = metadata !{i32 786478, i32 0, metadata !114, metadata !"_M_add_reference", metadata !"_M_add_reference", metadata !"_ZNKSt6locale5facet16_M_add_referenceEv", metadata !102, i32 432, metadata !178, i1 false, i1 false, i32 0, i32 0, null, i32 257, i1 false, null, null, i32 0, metadata !90, i32 432} ; [ DW_TAG_subprogram ] [line 432] [_M_add_reference]
!178 = metadata !{i32 786453, i32 0, metadata !"", i32 0, i32 0, i64 0, i64 0, i64 0, i32 0, null, metadata !179, i32 0, i32 0} ; [ DW_TAG_subroutine_type ] [line 0, size 0, align 0, offset 0] [from ]
!179 = metadata !{null, metadata !180}
!180 = metadata !{i32 786447, i32 0, metadata !"", i32 0, i32 0, i64 64, i64 64, i64 0, i32 1088, metadata !113} ; [ DW_TAG_pointer_type ] [line 0, size 64, align 64, offset 0] [from ]
!181 = metadata !{i32 786478, i32 0, metadata !114, metadata !"_M_remove_reference", metadata !"_M_remove_reference", metadata !"_ZNKSt6locale5facet19_M_remove_referenceEv", metadata !102, i32 436, metadata !178, i1 false, i1 false, i32 0, i32 0, null, i32 257, i1 false, null, null, i32 0, metadata !90, i32 436} ; [ DW_TAG_subprogram ] [line 436] [_M_remove_reference]
!182 = metadata !{i32 786478, i32 0, metadata !114, metadata !"facet", metadata !"facet", metadata !"", metadata !102, i32 450, metadata !183, i1 false, i1 false, i32 0, i32 0, null, i32 257, i1 false, null, null, i32 0, metadata !90, i32 450} ; [ DW_TAG_subprogram ] [line 450] [facet]
!183 = metadata !{i32 786453, i32 0, metadata !"", i32 0, i32 0, i64 0, i64 0, i64 0, i32 0, null, metadata !184, i32 0, i32 0} ; [ DW_TAG_subroutine_type ] [line 0, size 0, align 0, offset 0] [from ]
!184 = metadata !{null, metadata !124, metadata !185}
!185 = metadata !{i32 786448, null, null, null, i32 0, i64 0, i64 0, i64 0, i32 0, metadata !113} ; [ DW_TAG_reference_type ] [line 0, size 0, align 0, offset 0] [from ]
!186 = metadata !{i32 786478, i32 0, metadata !114, metadata !"operator=", metadata !"operator=", metadata !"_ZNSt6locale5facetaSERKS0_", metadata !102, i32 453, metadata !187, i1 false, i1 false, i32 0, i32 0, null, i32 257, i1 false, null, null, i32 0, metadata !90, i32 453} ; [ DW_TAG_subprogram ] [line 453] [operator=]
!187 = metadata !{i32 786453, i32 0, metadata !"", i32 0, i32 0, i64 0, i64 0, i64 0, i32 0, null, metadata !188, i32 0, i32 0} ; [ DW_TAG_subroutine_type ] [line 0, size 0, align 0, offset 0] [from ]
!188 = metadata !{metadata !189, metadata !124, metadata !185}
!189 = metadata !{i32 786448, null, null, null, i32 0, i64 0, i64 0, i64 0, i32 0, metadata !114} ; [ DW_TAG_reference_type ] [line 0, size 0, align 0, offset 0] [from facet]
!190 = metadata !{i32 786478, i32 0, metadata !114, metadata !"_M_sso_shim", metadata !"_M_sso_shim", metadata !"_ZNKSt6locale5facet11_M_sso_shimEPKNS_2idE", metadata !102, i32 457, metadata !191, i1 false, i1 false, i32 0, i32 0, null, i32 257, i1 false, null, null, i32 0, metadata !90, i32 457} ; [ DW_TAG_subprogram ] [line 457] [_M_sso_shim]
!191 = metadata !{i32 786453, i32 0, metadata !"", i32 0, i32 0, i64 0, i64 0, i64 0, i32 0, null, metadata !192, i32 0, i32 0} ; [ DW_TAG_subroutine_type ] [line 0, size 0, align 0, offset 0] [from ]
!192 = metadata !{metadata !112, metadata !180, metadata !193}
!193 = metadata !{i32 786447, null, metadata !"", null, i32 0, i64 64, i64 64, i64 0, i32 0, metadata !194} ; [ DW_TAG_pointer_type ] [line 0, size 64, align 64, offset 0] [from ]
!194 = metadata !{i32 786470, null, metadata !"", null, i32 0, i64 0, i64 0, i64 0, i32 0, metadata !195} ; [ DW_TAG_const_type ] [line 0, size 0, align 0, offset 0] [from id]
!195 = metadata !{i32 786434, metadata !100, metadata !"id", metadata !102, i32 473, i64 64, i64 64, i32 0, i32 0, null, metadata !196, i32 0, null, null} ; [ DW_TAG_class_type ] [id] [line 473, size 64, align 64, offset 0] [from ]
!196 = metadata !{metadata !197, metadata !198, metadata !203, metadata !204, metadata !207, metadata !211, metadata !212}
!197 = metadata !{i32 786445, metadata !195, metadata !"_M_index", metadata !102, i32 490, i64 64, i64 64, i64 0, i32 1, metadata !125} ; [ DW_TAG_member ] [_M_index] [line 490, size 64, align 64, offset 0] [private] [from size_t]
!198 = metadata !{i32 786478, i32 0, metadata !195, metadata !"operator=", metadata !"operator=", metadata !"_ZNSt6locale2idaSERKS0_", metadata !102, i32 496, metadata !199, i1 false, i1 false, i32 0, i32 0, null, i32 257, i1 false, null, null, i32 0, metadata !90, i32 496} ; [ DW_TAG_subprogram ] [line 496] [operator=]
!199 = metadata !{i32 786453, i32 0, metadata !"", i32 0, i32 0, i64 0, i64 0, i64 0, i32 0, null, metadata !200, i32 0, i32 0} ; [ DW_TAG_subroutine_type ] [line 0, size 0, align 0, offset 0] [from ]
!200 = metadata !{null, metadata !201, metadata !202}
!201 = metadata !{i32 786447, i32 0, metadata !"", i32 0, i32 0, i64 64, i64 64, i64 0, i32 1088, metadata !195} ; [ DW_TAG_pointer_type ] [line 0, size 64, align 64, offset 0] [from id]
!202 = metadata !{i32 786448, null, null, null, i32 0, i64 0, i64 0, i64 0, i32 0, metadata !194} ; [ DW_TAG_reference_type ] [line 0, size 0, align 0, offset 0] [from ]
!203 = metadata !{i32 786478, i32 0, metadata !195, metadata !"id", metadata !"id", metadata !"", metadata !102, i32 498, metadata !199, i1 false, i1 false, i32 0, i32 0, null, i32 257, i1 false, null, null, i32 0, metadata !90, i32 498} ; [ DW_TAG_subprogram ] [line 498] [id]
!204 = metadata !{i32 786478, i32 0, metadata !195, metadata !"id", metadata !"id", metadata !"", metadata !102, i32 504, metadata !205, i1 false, i1 false, i32 0, i32 0, null, i32 256, i1 false, null, null, i32 0, metadata !90, i32 504} ; [ DW_TAG_subprogram ] [line 504] [id]
!205 = metadata !{i32 786453, i32 0, metadata !"", i32 0, i32 0, i64 0, i64 0, i64 0, i32 0, null, metadata !206, i32 0, i32 0} ; [ DW_TAG_subroutine_type ] [line 0, size 0, align 0, offset 0] [from ]
!206 = metadata !{null, metadata !201}
!207 = metadata !{i32 786478, i32 0, metadata !195, metadata !"_M_id", metadata !"_M_id", metadata !"_ZNKSt6locale2id5_M_idEv", metadata !102, i32 507, metadata !208, i1 false, i1 false, i32 0, i32 0, null, i32 256, i1 false, null, null, i32 0, metadata !90, i32 507} ; [ DW_TAG_subprogram ] [line 507] [_M_id]
!208 = metadata !{i32 786453, i32 0, metadata !"", i32 0, i32 0, i64 0, i64 0, i64 0, i32 0, null, metadata !209, i32 0, i32 0} ; [ DW_TAG_subroutine_type ] [line 0, size 0, align 0, offset 0] [from ]
!209 = metadata !{metadata !125, metadata !210}
!210 = metadata !{i32 786447, i32 0, metadata !"", i32 0, i32 0, i64 64, i64 64, i64 0, i32 1088, metadata !194} ; [ DW_TAG_pointer_type ] [line 0, size 64, align 64, offset 0] [from ]
!211 = metadata !{i32 786474, metadata !195, null, metadata !102, i32 0, i64 0, i64 0, i64 0, i32 0, metadata !106} ; [ DW_TAG_friend ] [line 0, size 0, align 0, offset 0] [from _Impl]
!212 = metadata !{i32 786474, metadata !195, null, metadata !102, i32 0, i64 0, i64 0, i64 0, i32 0, metadata !100} ; [ DW_TAG_friend ] [line 0, size 0, align 0, offset 0] [from locale]
!213 = metadata !{i32 786478, i32 0, metadata !114, metadata !"_M_cow_shim", metadata !"_M_cow_shim", metadata !"_ZNKSt6locale5facet11_M_cow_shimEPKNS_2idE", metadata !102, i32 458, metadata !191, i1 false, i1 false, i32 0, i32 0, null, i32 257, i1 false, null, null, i32 0, metadata !90, i32 458} ; [ DW_TAG_subprogram ] [line 458] [_M_cow_shim]
!214 = metadata !{i32 786474, metadata !114, null, metadata !102, i32 0, i64 0, i64 0, i64 0, i32 0, metadata !106} ; [ DW_TAG_friend ] [line 0, size 0, align 0, offset 0] [from _Impl]
!215 = metadata !{i32 786474, metadata !114, null, metadata !102, i32 0, i64 0, i64 0, i64 0, i32 0, metadata !100} ; [ DW_TAG_friend ] [line 0, size 0, align 0, offset 0] [from locale]
!216 = metadata !{i32 786445, metadata !106, metadata !"_M_facets_size", metadata !102, i32 534, i64 64, i64 64, i64 128, i32 1, metadata !125} ; [ DW_TAG_member ] [_M_facets_size] [line 534, size 64, align 64, offset 128] [private] [from size_t]
!217 = metadata !{i32 786445, metadata !106, metadata !"_M_caches", metadata !102, i32 535, i64 64, i64 64, i64 192, i32 1, metadata !111} ; [ DW_TAG_member ] [_M_caches] [line 535, size 64, align 64, offset 192] [private] [from ]
!218 = metadata !{i32 786445, metadata !106, metadata !"_M_names", metadata !102, i32 536, i64 64, i64 64, i64 256, i32 1, metadata !219} ; [ DW_TAG_member ] [_M_names] [line 536, size 64, align 64, offset 256] [private] [from ]
!219 = metadata !{i32 786447, null, metadata !"", null, i32 0, i64 64, i64 64, i64 0, i32 0, metadata !220} ; [ DW_TAG_pointer_type ] [line 0, size 64, align 64, offset 0] [from ]
!220 = metadata !{i32 786447, null, metadata !"", null, i32 0, i64 64, i64 64, i64 0, i32 0, metadata !161} ; [ DW_TAG_pointer_type ] [line 0, size 64, align 64, offset 0] [from char]
!221 = metadata !{i32 786478, i32 0, metadata !106, metadata !"_M_add_reference", metadata !"_M_add_reference", metadata !"_ZNSt6locale5_Impl16_M_add_referenceEv", metadata !102, i32 546, metadata !222, i1 false, i1 false, i32 0, i32 0, null, i32 257, i1 false, null, null, i32 0, metadata !90, i32 546} ; [ DW_TAG_subprogram ] [line 546] [_M_add_reference]
!222 = metadata !{i32 786453, i32 0, metadata !"", i32 0, i32 0, i64 0, i64 0, i64 0, i32 0, null, metadata !223, i32 0, i32 0} ; [ DW_TAG_subroutine_type ] [line 0, size 0, align 0, offset 0] [from ]
!223 = metadata !{null, metadata !224}
!224 = metadata !{i32 786447, i32 0, metadata !"", i32 0, i32 0, i64 64, i64 64, i64 0, i32 1088, metadata !106} ; [ DW_TAG_pointer_type ] [line 0, size 64, align 64, offset 0] [from _Impl]
!225 = metadata !{i32 786478, i32 0, metadata !106, metadata !"_M_remove_reference", metadata !"_M_remove_reference", metadata !"_ZNSt6locale5_Impl19_M_remove_referenceEv", metadata !102, i32 550, metadata !222, i1 false, i1 false, i32 0, i32 0, null, i32 257, i1 false, null, null, i32 0, metadata !90, i32 550} ; [ DW_TAG_subprogram ] [line 550] [_M_remove_reference]
!226 = metadata !{i32 786478, i32 0, metadata !106, metadata !"_Impl", metadata !"_Impl", metadata !"", metadata !102, i32 564, metadata !227, i1 false, i1 false, i32 0, i32 0, null, i32 257, i1 false, null, null, i32 0, metadata !90, i32 564} ; [ DW_TAG_subprogram ] [line 564] [_Impl]
!227 = metadata !{i32 786453, i32 0, metadata !"", i32 0, i32 0, i64 0, i64 0, i64 0, i32 0, null, metadata !228, i32 0, i32 0} ; [ DW_TAG_subroutine_type ] [line 0, size 0, align 0, offset 0] [from ]
!228 = metadata !{null, metadata !224, metadata !229, metadata !125}
!229 = metadata !{i32 786448, null, null, null, i32 0, i64 0, i64 0, i64 0, i32 0, metadata !230} ; [ DW_TAG_reference_type ] [line 0, size 0, align 0, offset 0] [from ]
!230 = metadata !{i32 786470, null, metadata !"", null, i32 0, i64 0, i64 0, i64 0, i32 0, metadata !106} ; [ DW_TAG_const_type ] [line 0, size 0, align 0, offset 0] [from _Impl]
!231 = metadata !{i32 786478, i32 0, metadata !106, metadata !"_Impl", metadata !"_Impl", metadata !"", metadata !102, i32 565, metadata !232, i1 false, i1 false, i32 0, i32 0, null, i32 257, i1 false, null, null, i32 0, metadata !90, i32 565} ; [ DW_TAG_subprogram ] [line 565] [_Impl]
!232 = metadata !{i32 786453, i32 0, metadata !"", i32 0, i32 0, i64 0, i64 0, i64 0, i32 0, null, metadata !233, i32 0, i32 0} ; [ DW_TAG_subroutine_type ] [line 0, size 0, align 0, offset 0] [from ]
!233 = metadata !{null, metadata !224, metadata !159, metadata !125}
!234 = metadata !{i32 786478, i32 0, metadata !106, metadata !"_Impl", metadata !"_Impl", metadata !"", metadata !102, i32 566, metadata !235, i1 false, i1 false, i32 0, i32 0, null, i32 257, i1 false, null, null, i32 0, metadata !90, i32 566} ; [ DW_TAG_subprogram ] [line 566] [_Impl]
!235 = metadata !{i32 786453, i32 0, metadata !"", i32 0, i32 0, i64 0, i64 0, i64 0, i32 0, null, metadata !236, i32 0, i32 0} ; [ DW_TAG_subroutine_type ] [line 0, size 0, align 0, offset 0] [from ]
!236 = metadata !{null, metadata !224, metadata !125}
!237 = metadata !{i32 786478, i32 0, metadata !106, metadata !"~_Impl", metadata !"~_Impl", metadata !"", metadata !102, i32 568, metadata !222, i1 false, i1 false, i32 0, i32 0, null, i32 257, i1 false, null, null, i32 0, metadata !90, i32 568} ; [ DW_TAG_subprogram ] [line 568] [~_Impl]
!238 = metadata !{i32 786478, i32 0, metadata !106, metadata !"_Impl", metadata !"_Impl", metadata !"", metadata !102, i32 570, metadata !239, i1 false, i1 false, i32 0, i32 0, null, i32 257, i1 false, null, null, i32 0, metadata !90, i32 570} ; [ DW_TAG_subprogram ] [line 570] [_Impl]
!239 = metadata !{i32 786453, i32 0, metadata !"", i32 0, i32 0, i64 0, i64 0, i64 0, i32 0, null, metadata !240, i32 0, i32 0} ; [ DW_TAG_subroutine_type ] [line 0, size 0, align 0, offset 0] [from ]
!240 = metadata !{null, metadata !224, metadata !229}
!241 = metadata !{i32 786478, i32 0, metadata !106, metadata !"operator=", metadata !"operator=", metadata !"_ZNSt6locale5_ImplaSERKS0_", metadata !102, i32 573, metadata !239, i1 false, i1 false, i32 0, i32 0, null, i32 257, i1 false, null, null, i32 0, metadata !90, i32 573} ; [ DW_TAG_subprogram ] [line 573] [operator=]
!242 = metadata !{i32 786478, i32 0, metadata !106, metadata !"_M_check_same_name", metadata !"_M_check_same_name", metadata !"_ZNSt6locale5_Impl18_M_check_same_nameEv", metadata !102, i32 576, metadata !243, i1 false, i1 false, i32 0, i32 0, null, i32 257, i1 false, null, null, i32 0, metadata !90, i32 576} ; [ DW_TAG_subprogram ] [line 576] [_M_check_same_name]
!243 = metadata !{i32 786453, i32 0, metadata !"", i32 0, i32 0, i64 0, i64 0, i64 0, i32 0, null, metadata !244, i32 0, i32 0} ; [ DW_TAG_subroutine_type ] [line 0, size 0, align 0, offset 0] [from ]
!244 = metadata !{metadata !245, metadata !224}
!245 = metadata !{i32 786468, null, metadata !"bool", null, i32 0, i64 8, i64 8, i64 0, i32 0, i32 2} ; [ DW_TAG_base_type ] [bool] [line 0, size 8, align 8, offset 0, enc DW_ATE_boolean]
!246 = metadata !{i32 786478, i32 0, metadata !106, metadata !"_M_replace_categories", metadata !"_M_replace_categories", metadata !"_ZNSt6locale5_Impl21_M_replace_categoriesEPKS0_i", metadata !102, i32 587, metadata !247, i1 false, i1 false, i32 0, i32 0, null, i32 257, i1 false, null, null, i32 0, metadata !90, i32 587} ; [ DW_TAG_subprogram ] [line 587] [_M_replace_categories]
!247 = metadata !{i32 786453, i32 0, metadata !"", i32 0, i32 0, i64 0, i64 0, i64 0, i32 0, null, metadata !248, i32 0, i32 0} ; [ DW_TAG_subroutine_type ] [line 0, size 0, align 0, offset 0] [from ]
!248 = metadata !{null, metadata !224, metadata !249, metadata !250}
!249 = metadata !{i32 786447, null, metadata !"", null, i32 0, i64 64, i64 64, i64 0, i32 0, metadata !230} ; [ DW_TAG_pointer_type ] [line 0, size 64, align 64, offset 0] [from ]
!250 = metadata !{i32 786454, metadata !100, metadata !"category", metadata !102, i32 66, i64 0, i64 0, i64 0, i32 0, metadata !62} ; [ DW_TAG_typedef ] [category] [line 66, size 0, align 0, offset 0] [from int]
!251 = metadata !{i32 786478, i32 0, metadata !106, metadata !"_M_replace_category", metadata !"_M_replace_category", metadata !"_ZNSt6locale5_Impl19_M_replace_categoryEPKS0_PKPKNS_2idE", metadata !102, i32 590, metadata !252, i1 false, i1 false, i32 0, i32 0, null, i32 257, i1 false, null, null, i32 0, metadata !90, i32 590} ; [ DW_TAG_subprogram ] [line 590] [_M_replace_category]
!252 = metadata !{i32 786453, i32 0, metadata !"", i32 0, i32 0, i64 0, i64 0, i64 0, i32 0, null, metadata !253, i32 0, i32 0} ; [ DW_TAG_subroutine_type ] [line 0, size 0, align 0, offset 0] [from ]
!253 = metadata !{null, metadata !224, metadata !249, metadata !254}
!254 = metadata !{i32 786447, null, metadata !"", null, i32 0, i64 64, i64 64, i64 0, i32 0, metadata !255} ; [ DW_TAG_pointer_type ] [line 0, size 64, align 64, offset 0] [from ]
!255 = metadata !{i32 786470, null, metadata !"", null, i32 0, i64 0, i64 0, i64 0, i32 0, metadata !256} ; [ DW_TAG_const_type ] [line 0, size 0, align 0, offset 0] [from ]
!256 = metadata !{i32 786447, null, metadata !"", null, i32 0, i64 64, i64 64, i64 0, i32 0, metadata !195} ; [ DW_TAG_pointer_type ] [line 0, size 64, align 64, offset 0] [from id]
!257 = metadata !{i32 786478, i32 0, metadata !106, metadata !"_M_replace_facet", metadata !"_M_replace_facet", metadata !"_ZNSt6locale5_Impl16_M_replace_facetEPKS0_PKNS_2idE", metadata !102, i32 593, metadata !258, i1 false, i1 false, i32 0, i32 0, null, i32 257, i1 false, null, null, i32 0, metadata !90, i32 593} ; [ DW_TAG_subprogram ] [line 593] [_M_replace_facet]
!258 = metadata !{i32 786453, i32 0, metadata !"", i32 0, i32 0, i64 0, i64 0, i64 0, i32 0, null, metadata !259, i32 0, i32 0} ; [ DW_TAG_subroutine_type ] [line 0, size 0, align 0, offset 0] [from ]
!259 = metadata !{null, metadata !224, metadata !249, metadata !256}
!260 = metadata !{i32 786478, i32 0, metadata !106, metadata !"_M_install_facet", metadata !"_M_install_facet", metadata !"_ZNSt6locale5_Impl16_M_install_facetEPKNS_2idEPKNS_5facetE", metadata !102, i32 596, metadata !261, i1 false, i1 false, i32 0, i32 0, null, i32 257, i1 false, null, null, i32 0, metadata !90, i32 596} ; [ DW_TAG_subprogram ] [line 596] [_M_install_facet]
!261 = metadata !{i32 786453, i32 0, metadata !"", i32 0, i32 0, i64 0, i64 0, i64 0, i32 0, null, metadata !262, i32 0, i32 0} ; [ DW_TAG_subroutine_type ] [line 0, size 0, align 0, offset 0] [from ]
!262 = metadata !{null, metadata !224, metadata !256, metadata !112}
!263 = metadata !{i32 786478, i32 0, metadata !106, metadata !"_M_install_cache", metadata !"_M_install_cache", metadata !"_ZNSt6locale5_Impl16_M_install_cacheEPKNS_5facetEm", metadata !102, i32 612, metadata !264, i1 false, i1 false, i32 0, i32 0, null, i32 257, i1 false, null, null, i32 0, metadata !90, i32 612} ; [ DW_TAG_subprogram ] [line 612] [_M_install_cache]
!264 = metadata !{i32 786453, i32 0, metadata !"", i32 0, i32 0, i64 0, i64 0, i64 0, i32 0, null, metadata !265, i32 0, i32 0} ; [ DW_TAG_subroutine_type ] [line 0, size 0, align 0, offset 0] [from ]
!265 = metadata !{null, metadata !224, metadata !112, metadata !125}
!266 = metadata !{i32 786478, i32 0, metadata !106, metadata !"_M_init_extra", metadata !"_M_init_extra", metadata !"_ZNSt6locale5_Impl13_M_init_extraEPPNS_5facetE", metadata !102, i32 614, metadata !267, i1 false, i1 false, i32 0, i32 0, null, i32 257, i1 false, null, null, i32 0, metadata !90, i32 614} ; [ DW_TAG_subprogram ] [line 614] [_M_init_extra]
!267 = metadata !{i32 786453, i32 0, metadata !"", i32 0, i32 0, i64 0, i64 0, i64 0, i32 0, null, metadata !268, i32 0, i32 0} ; [ DW_TAG_subroutine_type ] [line 0, size 0, align 0, offset 0] [from ]
!268 = metadata !{null, metadata !224, metadata !269}
!269 = metadata !{i32 786447, null, metadata !"", null, i32 0, i64 64, i64 64, i64 0, i32 0, metadata !270} ; [ DW_TAG_pointer_type ] [line 0, size 64, align 64, offset 0] [from ]
!270 = metadata !{i32 786447, null, metadata !"", null, i32 0, i64 64, i64 64, i64 0, i32 0, metadata !114} ; [ DW_TAG_pointer_type ] [line 0, size 64, align 64, offset 0] [from facet]
!271 = metadata !{i32 786478, i32 0, metadata !106, metadata !"_M_init_extra", metadata !"_M_init_extra", metadata !"_ZNSt6locale5_Impl13_M_init_extraEPvS1_PKcS3_", metadata !102, i32 615, metadata !272, i1 false, i1 false, i32 0, i32 0, null, i32 257, i1 false, null, null, i32 0, metadata !90, i32 615} ; [ DW_TAG_subprogram ] [line 615] [_M_init_extra]
!272 = metadata !{i32 786453, i32 0, metadata !"", i32 0, i32 0, i64 0, i64 0, i64 0, i32 0, null, metadata !273, i32 0, i32 0} ; [ DW_TAG_subroutine_type ] [line 0, size 0, align 0, offset 0] [from ]
!273 = metadata !{null, metadata !224, metadata !84, metadata !84, metadata !159, metadata !159}
!274 = metadata !{i32 786474, metadata !106, null, metadata !102, i32 0, i64 0, i64 0, i64 0, i32 0, metadata !114} ; [ DW_TAG_friend ] [line 0, size 0, align 0, offset 0] [from facet]
!275 = metadata !{i32 786474, metadata !106, null, metadata !102, i32 0, i64 0, i64 0, i64 0, i32 0, metadata !100} ; [ DW_TAG_friend ] [line 0, size 0, align 0, offset 0] [from locale]
!276 = metadata !{i32 786478, i32 0, metadata !100, metadata !"locale", metadata !"locale", metadata !"", metadata !102, i32 116, metadata !277, i1 false, i1 false, i32 0, i32 0, null, i32 256, i1 false, null, null, i32 0, metadata !90, i32 116} ; [ DW_TAG_subprogram ] [line 116] [locale]
!277 = metadata !{i32 786453, i32 0, metadata !"", i32 0, i32 0, i64 0, i64 0, i64 0, i32 0, null, metadata !278, i32 0, i32 0} ; [ DW_TAG_subroutine_type ] [line 0, size 0, align 0, offset 0] [from ]
!278 = metadata !{null, metadata !279}
!279 = metadata !{i32 786447, i32 0, metadata !"", i32 0, i32 0, i64 64, i64 64, i64 0, i32 1088, metadata !100} ; [ DW_TAG_pointer_type ] [line 0, size 64, align 64, offset 0] [from locale]
!280 = metadata !{i32 786478, i32 0, metadata !100, metadata !"locale", metadata !"locale", metadata !"", metadata !102, i32 125, metadata !281, i1 false, i1 false, i32 0, i32 0, null, i32 256, i1 false, null, null, i32 0, metadata !90, i32 125} ; [ DW_TAG_subprogram ] [line 125] [locale]
!281 = metadata !{i32 786453, i32 0, metadata !"", i32 0, i32 0, i64 0, i64 0, i64 0, i32 0, null, metadata !282, i32 0, i32 0} ; [ DW_TAG_subroutine_type ] [line 0, size 0, align 0, offset 0] [from ]
!282 = metadata !{null, metadata !279, metadata !283}
!283 = metadata !{i32 786448, null, null, null, i32 0, i64 0, i64 0, i64 0, i32 0, metadata !284} ; [ DW_TAG_reference_type ] [line 0, size 0, align 0, offset 0] [from ]
!284 = metadata !{i32 786470, null, metadata !"", null, i32 0, i64 0, i64 0, i64 0, i32 0, metadata !100} ; [ DW_TAG_const_type ] [line 0, size 0, align 0, offset 0] [from locale]
!285 = metadata !{i32 786478, i32 0, metadata !100, metadata !"locale", metadata !"locale", metadata !"", metadata !102, i32 136, metadata !286, i1 false, i1 false, i32 0, i32 0, null, i32 384, i1 false, null, null, i32 0, metadata !90, i32 136} ; [ DW_TAG_subprogram ] [line 136] [locale]
!286 = metadata !{i32 786453, i32 0, metadata !"", i32 0, i32 0, i64 0, i64 0, i64 0, i32 0, null, metadata !287, i32 0, i32 0} ; [ DW_TAG_subroutine_type ] [line 0, size 0, align 0, offset 0] [from ]
!287 = metadata !{null, metadata !279, metadata !159}
!288 = metadata !{i32 786478, i32 0, metadata !100, metadata !"locale", metadata !"locale", metadata !"", metadata !102, i32 150, metadata !289, i1 false, i1 false, i32 0, i32 0, null, i32 256, i1 false, null, null, i32 0, metadata !90, i32 150} ; [ DW_TAG_subprogram ] [line 150] [locale]
!289 = metadata !{i32 786453, i32 0, metadata !"", i32 0, i32 0, i64 0, i64 0, i64 0, i32 0, null, metadata !290, i32 0, i32 0} ; [ DW_TAG_subroutine_type ] [line 0, size 0, align 0, offset 0] [from ]
!290 = metadata !{null, metadata !279, metadata !283, metadata !159, metadata !250}
!291 = metadata !{i32 786478, i32 0, metadata !100, metadata !"locale", metadata !"locale", metadata !"", metadata !102, i32 191, metadata !292, i1 false, i1 false, i32 0, i32 0, null, i32 256, i1 false, null, null, i32 0, metadata !90, i32 191} ; [ DW_TAG_subprogram ] [line 191] [locale]
!292 = metadata !{i32 786453, i32 0, metadata !"", i32 0, i32 0, i64 0, i64 0, i64 0, i32 0, null, metadata !293, i32 0, i32 0} ; [ DW_TAG_subroutine_type ] [line 0, size 0, align 0, offset 0] [from ]
!293 = metadata !{null, metadata !279, metadata !283, metadata !283, metadata !250}
!294 = metadata !{i32 786478, i32 0, metadata !100, metadata !"~locale", metadata !"~locale", metadata !"", metadata !102, i32 208, metadata !277, i1 false, i1 false, i32 0, i32 0, null, i32 256, i1 false, null, null, i32 0, metadata !90, i32 208} ; [ DW_TAG_subprogram ] [line 208] [~locale]
!295 = metadata !{i32 786478, i32 0, metadata !100, metadata !"operator=", metadata !"operator=", metadata !"_ZNSt6localeaSERKS_", metadata !102, i32 219, metadata !296, i1 false, i1 false, i32 0, i32 0, null, i32 256, i1 false, null, null, i32 0, metadata !90, i32 219} ; [ DW_TAG_subprogram ] [line 219] [operator=]
!296 = metadata !{i32 786453, i32 0, metadata !"", i32 0, i32 0, i64 0, i64 0, i64 0, i32 0, null, metadata !297, i32 0, i32 0} ; [ DW_TAG_subroutine_type ] [line 0, size 0, align 0, offset 0] [from ]
!297 = metadata !{metadata !283, metadata !279, metadata !283}
!298 = metadata !{i32 786478, i32 0, metadata !100, metadata !"name", metadata !"name", metadata !"_ZNKSt6locale4nameEv", metadata !102, i32 244, metadata !299, i1 false, i1 false, i32 0, i32 0, null, i32 256, i1 false, null, null, i32 0, metadata !90, i32 244} ; [ DW_TAG_subprogram ] [line 244] [name]
!299 = metadata !{i32 786453, i32 0, metadata !"", i32 0, i32 0, i64 0, i64 0, i64 0, i32 0, null, metadata !300, i32 0, i32 0} ; [ DW_TAG_subroutine_type ] [line 0, size 0, align 0, offset 0] [from ]
!300 = metadata !{metadata !301, metadata !825}
!301 = metadata !{i32 786454, metadata !302, metadata !"string", metadata !102, i32 73, i64 0, i64 0, i64 0, i32 0, metadata !305} ; [ DW_TAG_typedef ] [string] [line 73, size 0, align 0, offset 0] [from basic_string<char>]
!302 = metadata !{i32 786489, metadata !303, metadata !"__cxx11", metadata !304, i32 66} ; [ DW_TAG_namespace ] [/home/mingyuanwu/gklee//usr/lib/gcc/x86_64-linux-gnu/5.4.0/../../../../include/c++/5.4.0/bits/stringfwd.h]
!303 = metadata !{i32 786489, null, metadata !"std", metadata !304, i32 41} ; [ DW_TAG_namespace ] [/home/mingyuanwu/gklee//usr/lib/gcc/x86_64-linux-gnu/5.4.0/../../../../include/c++/5.4.0/bits/stringfwd.h]
!304 = metadata !{i32 786473, metadata !"/usr/lib/gcc/x86_64-linux-gnu/5.4.0/../../../../include/c++/5.4.0/bits/stringfwd.h", metadata !"/home/mingyuanwu/gklee", null} ; [ DW_TAG_file_type ]
!305 = metadata !{i32 786434, metadata !302, metadata !"basic_string<char>", metadata !306, i32 1576, i64 256, i64 64, i32 0, i32 0, null, metadata !307, i32 0, null, metadata !770} ; [ DW_TAG_class_type ] [basic_string<char>] [line 1576, size 256, align 64, offset 0] [from ]
!306 = metadata !{i32 786473, metadata !"/usr/lib/gcc/x86_64-linux-gnu/5.4.0/../../../../include/c++/5.4.0/bits/basic_string.tcc", metadata !"/home/mingyuanwu/gklee", null} ; [ DW_TAG_file_type ]
!307 = metadata !{metadata !308, metadata !421, metadata !424, metadata !432, metadata !436, metadata !439, metadata !444, metadata !447, metadata !453, metadata !454, metadata !455, metadata !458, metadata !462, metadata !465, metadata !466, metadata !469, metadata !470, metadata !474, metadata !479, metadata !482, metadata !485, metadata !488, metadata !491, metadata !494, metadata !495, metadata !498, metadata !505, metadata !510, metadata !513, metadata !516, metadata !519, metadata !523, metadata !526, metadata !529, metadata !530, metadata !533, metadata !534, metadata !537, metadata !540, metadata !543, metadata !546, metadata !549, metadata !550, metadata !554, metadata !557, metadata !560, metadata !563, metadata !566, metadata !567, metadata !568, metadata !574, metadata !579, metadata !580, metadata !581, metadata !584, metadata !585, metadata !586, metadata !587, metadata !588, metadata !589, metadata !590, metadata !591, metadata !592, metadata !598, metadata !604, metadata !605, metadata !606, metadata !607, metadata !608, metadata !609, metadata !610, metadata !613, metadata !616, metadata !617, metadata !620, metadata !623, metadata !624, metadata !625, metadata !626, metadata !627, metadata !628, metadata !631, metadata !634, metadata !637, metadata !640, metadata !643, metadata !646, metadata !650, metadata !653, metadata !656, metadata !659, metadata !662, metadata !665, metadata !668, metadata !671, metadata !674, metadata !677, metadata !680, metadata !683, metadata !686, metadata !689, metadata !692, metadata !695, metadata !698, metadata !699, metadata !703, metadata !704, metadata !707, metadata !710, metadata !713, metadata !714, metadata !717, metadata !720, metadata !723, metadata !726, metadata !729, metadata !730, metadata !731, metadata !732, metadata !733, metadata !734, metadata !735, metadata !736, metadata !737, metadata !738, metadata !739, metadata !740, metadata !741, metadata !742, metadata !743, metadata !744, metadata !745, metadata !746, metadata !747, metadata !748, metadata !749, metadata !752, metadata !755, metadata !758, metadata !761, metadata !764, metadata !767}
!308 = metadata !{i32 786445, metadata !305, metadata !"_M_dataplus", metadata !126, i32 113, i64 64, i64 64, i64 0, i32 1, metadata !309} ; [ DW_TAG_member ] [_M_dataplus] [line 113, size 64, align 64, offset 0] [private] [from _Alloc_hider]
!309 = metadata !{i32 786451, metadata !305, metadata !"_Alloc_hider", metadata !126, i32 105, i64 64, i64 64, i32 0, i32 0, null, metadata !310, i32 0, null, null} ; [ DW_TAG_structure_type ] [_Alloc_hider] [line 105, size 64, align 64, offset 0] [from ]
!310 = metadata !{metadata !311, metadata !415, metadata !417}
!311 = metadata !{i32 786460, metadata !309, null, metadata !126, i32 0, i64 0, i64 0, i64 0, i32 0, metadata !312} ; [ DW_TAG_inheritance ] [line 0, size 0, align 0, offset 0] [from allocator_type]
!312 = metadata !{i32 786454, metadata !305, metadata !"allocator_type", metadata !126, i32 80, i64 0, i64 0, i64 0, i32 0, metadata !313} ; [ DW_TAG_typedef ] [allocator_type] [line 80, size 0, align 0, offset 0] [from _Char_alloc_type]
!313 = metadata !{i32 786454, metadata !305, metadata !"_Char_alloc_type", metadata !126, i32 73, i64 0, i64 0, i64 0, i32 0, metadata !314} ; [ DW_TAG_typedef ] [_Char_alloc_type] [line 73, size 0, align 0, offset 0] [from other]
!314 = metadata !{i32 786454, metadata !315, metadata !"other", metadata !126, i32 207, i64 0, i64 0, i64 0, i32 0, metadata !411} ; [ DW_TAG_typedef ] [other] [line 207, size 0, align 0, offset 0] [from other]
!315 = metadata !{i32 786451, metadata !316, metadata !"rebind<char>", metadata !318, i32 206, i64 8, i64 8, i32 0, i32 0, null, metadata !410, i32 0, null, metadata !376} ; [ DW_TAG_structure_type ] [rebind<char>] [line 206, size 8, align 8, offset 0] [from ]
!316 = metadata !{i32 786451, metadata !317, metadata !"__alloc_traits<std::allocator<char> >", metadata !318, i32 94, i64 8, i64 8, i32 0, i32 0, null, metadata !319, i32 0, null, metadata !408} ; [ DW_TAG_structure_type ] [__alloc_traits<std::allocator<char> >] [line 94, size 8, align 8, offset 0] [from ]
!317 = metadata !{i32 786489, null, metadata !"__gnu_cxx", metadata !318, i32 40} ; [ DW_TAG_namespace ] [/home/mingyuanwu/gklee//usr/lib/gcc/x86_64-linux-gnu/5.4.0/../../../../include/c++/5.4.0/ext/alloc_traits.h]
!318 = metadata !{i32 786473, metadata !"/usr/lib/gcc/x86_64-linux-gnu/5.4.0/../../../../include/c++/5.4.0/ext/alloc_traits.h", metadata !"/home/mingyuanwu/gklee", null} ; [ DW_TAG_file_type ]
!319 = metadata !{metadata !320, metadata !393, metadata !396, metadata !399, metadata !402, metadata !405}
!320 = metadata !{i32 786478, i32 0, metadata !316, metadata !"allocate", metadata !"allocate", metadata !"_ZN9__gnu_cxx14__alloc_traitsISaIcEE8allocateERS1_m", metadata !318, i32 180, metadata !321, i1 false, i1 false, i32 0, i32 0, null, i32 256, i1 false, null, null, i32 0, metadata !90, i32 180} ; [ DW_TAG_subprogram ] [line 180] [allocate]
!321 = metadata !{i32 786453, i32 0, metadata !"", i32 0, i32 0, i64 0, i64 0, i64 0, i32 0, null, metadata !322, i32 0, i32 0} ; [ DW_TAG_subroutine_type ] [line 0, size 0, align 0, offset 0] [from ]
!322 = metadata !{metadata !323, metadata !390, metadata !391}
!323 = metadata !{i32 786454, metadata !316, metadata !"pointer", metadata !318, i32 171, i64 0, i64 0, i64 0, i32 0, metadata !324} ; [ DW_TAG_typedef ] [pointer] [line 171, size 0, align 0, offset 0] [from pointer]
!324 = metadata !{i32 786454, metadata !325, metadata !"pointer", metadata !318, i32 97, i64 0, i64 0, i64 0, i32 0, metadata !220} ; [ DW_TAG_typedef ] [pointer] [line 97, size 0, align 0, offset 0] [from ]
!325 = metadata !{i32 786434, metadata !326, metadata !"allocator<char>", metadata !328, i32 155, i64 8, i64 8, i32 0, i32 0, null, metadata !329, i32 0, null, metadata !388} ; [ DW_TAG_class_type ] [allocator<char>] [line 155, size 8, align 8, offset 0] [from ]
!326 = metadata !{i32 786489, null, metadata !"std", metadata !327, i32 49} ; [ DW_TAG_namespace ] [/home/mingyuanwu/gklee//usr/lib/gcc/x86_64-linux-gnu/5.4.0/../../../../include/c++/5.4.0/bits/memoryfwd.h]
!327 = metadata !{i32 786473, metadata !"/usr/lib/gcc/x86_64-linux-gnu/5.4.0/../../../../include/c++/5.4.0/bits/memoryfwd.h", metadata !"/home/mingyuanwu/gklee", null} ; [ DW_TAG_file_type ]
!328 = metadata !{i32 786473, metadata !"/usr/lib/gcc/x86_64-linux-gnu/5.4.0/../../../../include/c++/5.4.0/bits/allocator.h", metadata !"/home/mingyuanwu/gklee", null} ; [ DW_TAG_file_type ]
!329 = metadata !{metadata !330, metadata !378, metadata !382, metadata !387}
!330 = metadata !{i32 786460, metadata !325, null, metadata !328, i32 0, i64 0, i64 0, i64 0, i32 0, metadata !331} ; [ DW_TAG_inheritance ] [line 0, size 0, align 0, offset 0] [from new_allocator<char>]
!331 = metadata !{i32 786434, metadata !332, metadata !"new_allocator<char>", metadata !333, i32 58, i64 8, i64 8, i32 0, i32 0, null, metadata !334, i32 0, null, metadata !376} ; [ DW_TAG_class_type ] [new_allocator<char>] [line 58, size 8, align 8, offset 0] [from ]
!332 = metadata !{i32 786489, null, metadata !"__gnu_cxx", metadata !333, i32 40} ; [ DW_TAG_namespace ] [/home/mingyuanwu/gklee//usr/lib/gcc/x86_64-linux-gnu/5.4.0/../../../../include/c++/5.4.0/ext/new_allocator.h]
!333 = metadata !{i32 786473, metadata !"/usr/lib/gcc/x86_64-linux-gnu/5.4.0/../../../../include/c++/5.4.0/ext/new_allocator.h", metadata !"/home/mingyuanwu/gklee", null} ; [ DW_TAG_file_type ]
!334 = metadata !{metadata !335, metadata !339, metadata !344, metadata !345, metadata !352, metadata !358, metadata !364, metadata !367, metadata !370, metadata !373}
!335 = metadata !{i32 786478, i32 0, metadata !331, metadata !"new_allocator", metadata !"new_allocator", metadata !"", metadata !333, i32 79, metadata !336, i1 false, i1 false, i32 0, i32 0, null, i32 256, i1 false, null, null, i32 0, metadata !90, i32 79} ; [ DW_TAG_subprogram ] [line 79] [new_allocator]
!336 = metadata !{i32 786453, i32 0, metadata !"", i32 0, i32 0, i64 0, i64 0, i64 0, i32 0, null, metadata !337, i32 0, i32 0} ; [ DW_TAG_subroutine_type ] [line 0, size 0, align 0, offset 0] [from ]
!337 = metadata !{null, metadata !338}
!338 = metadata !{i32 786447, i32 0, metadata !"", i32 0, i32 0, i64 64, i64 64, i64 0, i32 1088, metadata !331} ; [ DW_TAG_pointer_type ] [line 0, size 64, align 64, offset 0] [from new_allocator<char>]
!339 = metadata !{i32 786478, i32 0, metadata !331, metadata !"new_allocator", metadata !"new_allocator", metadata !"", metadata !333, i32 81, metadata !340, i1 false, i1 false, i32 0, i32 0, null, i32 256, i1 false, null, null, i32 0, metadata !90, i32 81} ; [ DW_TAG_subprogram ] [line 81] [new_allocator]
!340 = metadata !{i32 786453, i32 0, metadata !"", i32 0, i32 0, i64 0, i64 0, i64 0, i32 0, null, metadata !341, i32 0, i32 0} ; [ DW_TAG_subroutine_type ] [line 0, size 0, align 0, offset 0] [from ]
!341 = metadata !{null, metadata !338, metadata !342}
!342 = metadata !{i32 786448, null, null, null, i32 0, i64 0, i64 0, i64 0, i32 0, metadata !343} ; [ DW_TAG_reference_type ] [line 0, size 0, align 0, offset 0] [from ]
!343 = metadata !{i32 786470, null, metadata !"", null, i32 0, i64 0, i64 0, i64 0, i32 0, metadata !331} ; [ DW_TAG_const_type ] [line 0, size 0, align 0, offset 0] [from new_allocator<char>]
!344 = metadata !{i32 786478, i32 0, metadata !331, metadata !"~new_allocator", metadata !"~new_allocator", metadata !"", metadata !333, i32 86, metadata !336, i1 false, i1 false, i32 0, i32 0, null, i32 256, i1 false, null, null, i32 0, metadata !90, i32 86} ; [ DW_TAG_subprogram ] [line 86] [~new_allocator]
!345 = metadata !{i32 786478, i32 0, metadata !331, metadata !"address", metadata !"address", metadata !"_ZNK9__gnu_cxx13new_allocatorIcE7addressERc", metadata !333, i32 89, metadata !346, i1 false, i1 false, i32 0, i32 0, null, i32 256, i1 false, null, null, i32 0, metadata !90, i32 89} ; [ DW_TAG_subprogram ] [line 89] [address]
!346 = metadata !{i32 786453, i32 0, metadata !"", i32 0, i32 0, i64 0, i64 0, i64 0, i32 0, null, metadata !347, i32 0, i32 0} ; [ DW_TAG_subroutine_type ] [line 0, size 0, align 0, offset 0] [from ]
!347 = metadata !{metadata !348, metadata !349, metadata !350}
!348 = metadata !{i32 786454, metadata !331, metadata !"pointer", metadata !333, i32 63, i64 0, i64 0, i64 0, i32 0, metadata !220} ; [ DW_TAG_typedef ] [pointer] [line 63, size 0, align 0, offset 0] [from ]
!349 = metadata !{i32 786447, i32 0, metadata !"", i32 0, i32 0, i64 64, i64 64, i64 0, i32 1088, metadata !343} ; [ DW_TAG_pointer_type ] [line 0, size 64, align 64, offset 0] [from ]
!350 = metadata !{i32 786454, metadata !331, metadata !"reference", metadata !333, i32 65, i64 0, i64 0, i64 0, i32 0, metadata !351} ; [ DW_TAG_typedef ] [reference] [line 65, size 0, align 0, offset 0] [from ]
!351 = metadata !{i32 786448, null, null, null, i32 0, i64 0, i64 0, i64 0, i32 0, metadata !161} ; [ DW_TAG_reference_type ] [line 0, size 0, align 0, offset 0] [from char]
!352 = metadata !{i32 786478, i32 0, metadata !331, metadata !"address", metadata !"address", metadata !"_ZNK9__gnu_cxx13new_allocatorIcE7addressERKc", metadata !333, i32 93, metadata !353, i1 false, i1 false, i32 0, i32 0, null, i32 256, i1 false, null, null, i32 0, metadata !90, i32 93} ; [ DW_TAG_subprogram ] [line 93] [address]
!353 = metadata !{i32 786453, i32 0, metadata !"", i32 0, i32 0, i64 0, i64 0, i64 0, i32 0, null, metadata !354, i32 0, i32 0} ; [ DW_TAG_subroutine_type ] [line 0, size 0, align 0, offset 0] [from ]
!354 = metadata !{metadata !355, metadata !349, metadata !356}
!355 = metadata !{i32 786454, metadata !331, metadata !"const_pointer", metadata !333, i32 64, i64 0, i64 0, i64 0, i32 0, metadata !159} ; [ DW_TAG_typedef ] [const_pointer] [line 64, size 0, align 0, offset 0] [from ]
!356 = metadata !{i32 786454, metadata !331, metadata !"const_reference", metadata !333, i32 66, i64 0, i64 0, i64 0, i32 0, metadata !357} ; [ DW_TAG_typedef ] [const_reference] [line 66, size 0, align 0, offset 0] [from ]
!357 = metadata !{i32 786448, null, null, null, i32 0, i64 0, i64 0, i64 0, i32 0, metadata !160} ; [ DW_TAG_reference_type ] [line 0, size 0, align 0, offset 0] [from ]
!358 = metadata !{i32 786478, i32 0, metadata !331, metadata !"allocate", metadata !"allocate", metadata !"_ZN9__gnu_cxx13new_allocatorIcE8allocateEmPKv", metadata !333, i32 99, metadata !359, i1 false, i1 false, i32 0, i32 0, null, i32 256, i1 false, null, null, i32 0, metadata !90, i32 99} ; [ DW_TAG_subprogram ] [line 99] [allocate]
!359 = metadata !{i32 786453, i32 0, metadata !"", i32 0, i32 0, i64 0, i64 0, i64 0, i32 0, null, metadata !360, i32 0, i32 0} ; [ DW_TAG_subroutine_type ] [line 0, size 0, align 0, offset 0] [from ]
!360 = metadata !{metadata !348, metadata !338, metadata !361, metadata !362}
!361 = metadata !{i32 786454, null, metadata !"size_type", metadata !333, i32 61, i64 0, i64 0, i64 0, i32 0, metadata !125} ; [ DW_TAG_typedef ] [size_type] [line 61, size 0, align 0, offset 0] [from size_t]
!362 = metadata !{i32 786447, null, metadata !"", null, i32 0, i64 64, i64 64, i64 0, i32 0, metadata !363} ; [ DW_TAG_pointer_type ] [line 0, size 64, align 64, offset 0] [from ]
!363 = metadata !{i32 786470, null, metadata !"", null, i32 0, i64 0, i64 0, i64 0, i32 0, null} ; [ DW_TAG_const_type ] [line 0, size 0, align 0, offset 0] [from ]
!364 = metadata !{i32 786478, i32 0, metadata !331, metadata !"deallocate", metadata !"deallocate", metadata !"_ZN9__gnu_cxx13new_allocatorIcE10deallocateEPcm", metadata !333, i32 109, metadata !365, i1 false, i1 false, i32 0, i32 0, null, i32 256, i1 false, null, null, i32 0, metadata !90, i32 109} ; [ DW_TAG_subprogram ] [line 109] [deallocate]
!365 = metadata !{i32 786453, i32 0, metadata !"", i32 0, i32 0, i64 0, i64 0, i64 0, i32 0, null, metadata !366, i32 0, i32 0} ; [ DW_TAG_subroutine_type ] [line 0, size 0, align 0, offset 0] [from ]
!366 = metadata !{null, metadata !338, metadata !348, metadata !361}
!367 = metadata !{i32 786478, i32 0, metadata !331, metadata !"max_size", metadata !"max_size", metadata !"_ZNK9__gnu_cxx13new_allocatorIcE8max_sizeEv", metadata !333, i32 113, metadata !368, i1 false, i1 false, i32 0, i32 0, null, i32 256, i1 false, null, null, i32 0, metadata !90, i32 113} ; [ DW_TAG_subprogram ] [line 113] [max_size]
!368 = metadata !{i32 786453, i32 0, metadata !"", i32 0, i32 0, i64 0, i64 0, i64 0, i32 0, null, metadata !369, i32 0, i32 0} ; [ DW_TAG_subroutine_type ] [line 0, size 0, align 0, offset 0] [from ]
!369 = metadata !{metadata !361, metadata !349}
!370 = metadata !{i32 786478, i32 0, metadata !331, metadata !"construct", metadata !"construct", metadata !"_ZN9__gnu_cxx13new_allocatorIcE9constructEPcRKc", metadata !333, i32 129, metadata !371, i1 false, i1 false, i32 0, i32 0, null, i32 256, i1 false, null, null, i32 0, metadata !90, i32 129} ; [ DW_TAG_subprogram ] [line 129] [construct]
!371 = metadata !{i32 786453, i32 0, metadata !"", i32 0, i32 0, i64 0, i64 0, i64 0, i32 0, null, metadata !372, i32 0, i32 0} ; [ DW_TAG_subroutine_type ] [line 0, size 0, align 0, offset 0] [from ]
!372 = metadata !{null, metadata !338, metadata !348, metadata !357}
!373 = metadata !{i32 786478, i32 0, metadata !331, metadata !"destroy", metadata !"destroy", metadata !"_ZN9__gnu_cxx13new_allocatorIcE7destroyEPc", metadata !333, i32 133, metadata !374, i1 false, i1 false, i32 0, i32 0, null, i32 256, i1 false, null, null, i32 0, metadata !90, i32 133} ; [ DW_TAG_subprogram ] [line 133] [destroy]
!374 = metadata !{i32 786453, i32 0, metadata !"", i32 0, i32 0, i64 0, i64 0, i64 0, i32 0, null, metadata !375, i32 0, i32 0} ; [ DW_TAG_subroutine_type ] [line 0, size 0, align 0, offset 0] [from ]
!375 = metadata !{null, metadata !338, metadata !348}
!376 = metadata !{metadata !377}
!377 = metadata !{i32 786479, null, metadata !"_Tp", metadata !161, null, i32 0, i32 0} ; [ DW_TAG_template_type_parameter ]
!378 = metadata !{i32 786478, i32 0, metadata !325, metadata !"allocator", metadata !"allocator", metadata !"", metadata !328, i32 113, metadata !379, i1 false, i1 false, i32 0, i32 0, null, i32 256, i1 false, null, null, i32 0, metadata !90, i32 113} ; [ DW_TAG_subprogram ] [line 113] [allocator]
!379 = metadata !{i32 786453, i32 0, metadata !"", i32 0, i32 0, i64 0, i64 0, i64 0, i32 0, null, metadata !380, i32 0, i32 0} ; [ DW_TAG_subroutine_type ] [line 0, size 0, align 0, offset 0] [from ]
!380 = metadata !{null, metadata !381}
!381 = metadata !{i32 786447, i32 0, metadata !"", i32 0, i32 0, i64 64, i64 64, i64 0, i32 1088, metadata !325} ; [ DW_TAG_pointer_type ] [line 0, size 64, align 64, offset 0] [from allocator<char>]
!382 = metadata !{i32 786478, i32 0, metadata !325, metadata !"allocator", metadata !"allocator", metadata !"", metadata !328, i32 115, metadata !383, i1 false, i1 false, i32 0, i32 0, null, i32 256, i1 false, null, null, i32 0, metadata !90, i32 115} ; [ DW_TAG_subprogram ] [line 115] [allocator]
!383 = metadata !{i32 786453, i32 0, metadata !"", i32 0, i32 0, i64 0, i64 0, i64 0, i32 0, null, metadata !384, i32 0, i32 0} ; [ DW_TAG_subroutine_type ] [line 0, size 0, align 0, offset 0] [from ]
!384 = metadata !{null, metadata !381, metadata !385}
!385 = metadata !{i32 786448, null, null, null, i32 0, i64 0, i64 0, i64 0, i32 0, metadata !386} ; [ DW_TAG_reference_type ] [line 0, size 0, align 0, offset 0] [from ]
!386 = metadata !{i32 786470, null, metadata !"", null, i32 0, i64 0, i64 0, i64 0, i32 0, metadata !325} ; [ DW_TAG_const_type ] [line 0, size 0, align 0, offset 0] [from allocator<char>]
!387 = metadata !{i32 786478, i32 0, metadata !325, metadata !"~allocator", metadata !"~allocator", metadata !"", metadata !328, i32 121, metadata !379, i1 false, i1 false, i32 0, i32 0, null, i32 256, i1 false, null, null, i32 0, metadata !90, i32 121} ; [ DW_TAG_subprogram ] [line 121] [~allocator]
!388 = metadata !{metadata !389}
!389 = metadata !{i32 786479, null, metadata !"", metadata !161, null, i32 0, i32 0} ; [ DW_TAG_template_type_parameter ]
!390 = metadata !{i32 786448, null, null, null, i32 0, i64 0, i64 0, i64 0, i32 0, metadata !325} ; [ DW_TAG_reference_type ] [line 0, size 0, align 0, offset 0] [from allocator<char>]
!391 = metadata !{i32 786454, metadata !316, metadata !"size_type", metadata !318, i32 176, i64 0, i64 0, i64 0, i32 0, metadata !392} ; [ DW_TAG_typedef ] [size_type] [line 176, size 0, align 0, offset 0] [from size_type]
!392 = metadata !{i32 786454, metadata !325, metadata !"size_type", metadata !126, i32 95, i64 0, i64 0, i64 0, i32 0, metadata !125} ; [ DW_TAG_typedef ] [size_type] [line 95, size 0, align 0, offset 0] [from size_t]
!393 = metadata !{i32 786478, i32 0, metadata !316, metadata !"deallocate", metadata !"deallocate", metadata !"_ZN9__gnu_cxx14__alloc_traitsISaIcEE10deallocateERS1_Pcm", metadata !318, i32 183, metadata !394, i1 false, i1 false, i32 0, i32 0, null, i32 256, i1 false, null, null, i32 0, metadata !90, i32 183} ; [ DW_TAG_subprogram ] [line 183] [deallocate]
!394 = metadata !{i32 786453, i32 0, metadata !"", i32 0, i32 0, i64 0, i64 0, i64 0, i32 0, null, metadata !395, i32 0, i32 0} ; [ DW_TAG_subroutine_type ] [line 0, size 0, align 0, offset 0] [from ]
!395 = metadata !{null, metadata !390, metadata !323, metadata !391}
!396 = metadata !{i32 786478, i32 0, metadata !316, metadata !"destroy", metadata !"destroy", metadata !"_ZN9__gnu_cxx14__alloc_traitsISaIcEE7destroyERS1_Pc", metadata !318, i32 190, metadata !397, i1 false, i1 false, i32 0, i32 0, null, i32 256, i1 false, null, null, i32 0, metadata !90, i32 190} ; [ DW_TAG_subprogram ] [line 190] [destroy]
!397 = metadata !{i32 786453, i32 0, metadata !"", i32 0, i32 0, i64 0, i64 0, i64 0, i32 0, null, metadata !398, i32 0, i32 0} ; [ DW_TAG_subroutine_type ] [line 0, size 0, align 0, offset 0] [from ]
!398 = metadata !{null, metadata !390, metadata !323}
!399 = metadata !{i32 786478, i32 0, metadata !316, metadata !"max_size", metadata !"max_size", metadata !"_ZN9__gnu_cxx14__alloc_traitsISaIcEE8max_sizeERKS1_", metadata !318, i32 193, metadata !400, i1 false, i1 false, i32 0, i32 0, null, i32 256, i1 false, null, null, i32 0, metadata !90, i32 193} ; [ DW_TAG_subprogram ] [line 193] [max_size]
!400 = metadata !{i32 786453, i32 0, metadata !"", i32 0, i32 0, i64 0, i64 0, i64 0, i32 0, null, metadata !401, i32 0, i32 0} ; [ DW_TAG_subroutine_type ] [line 0, size 0, align 0, offset 0] [from ]
!401 = metadata !{metadata !391, metadata !385}
!402 = metadata !{i32 786478, i32 0, metadata !316, metadata !"_S_select_on_copy", metadata !"_S_select_on_copy", metadata !"_ZN9__gnu_cxx14__alloc_traitsISaIcEE17_S_select_on_copyERKS1_", metadata !318, i32 196, metadata !403, i1 false, i1 false, i32 0, i32 0, null, i32 256, i1 false, null, null, i32 0, metadata !90, i32 196} ; [ DW_TAG_subprogram ] [line 196] [_S_select_on_copy]
!403 = metadata !{i32 786453, i32 0, metadata !"", i32 0, i32 0, i64 0, i64 0, i64 0, i32 0, null, metadata !404, i32 0, i32 0} ; [ DW_TAG_subroutine_type ] [line 0, size 0, align 0, offset 0] [from ]
!404 = metadata !{metadata !385, metadata !385}
!405 = metadata !{i32 786478, i32 0, metadata !316, metadata !"_S_on_swap", metadata !"_S_on_swap", metadata !"_ZN9__gnu_cxx14__alloc_traitsISaIcEE10_S_on_swapERS1_S3_", metadata !318, i32 198, metadata !406, i1 false, i1 false, i32 0, i32 0, null, i32 256, i1 false, null, null, i32 0, metadata !90, i32 198} ; [ DW_TAG_subprogram ] [line 198] [_S_on_swap]
!406 = metadata !{i32 786453, i32 0, metadata !"", i32 0, i32 0, i64 0, i64 0, i64 0, i32 0, null, metadata !407, i32 0, i32 0} ; [ DW_TAG_subroutine_type ] [line 0, size 0, align 0, offset 0] [from ]
!407 = metadata !{null, metadata !390, metadata !390}
!408 = metadata !{metadata !409}
!409 = metadata !{i32 786479, null, metadata !"_Alloc", metadata !325, null, i32 0, i32 0} ; [ DW_TAG_template_type_parameter ]
!410 = metadata !{i32 0}
!411 = metadata !{i32 786454, metadata !412, metadata !"other", metadata !126, i32 105, i64 0, i64 0, i64 0, i32 0, metadata !325} ; [ DW_TAG_typedef ] [other] [line 105, size 0, align 0, offset 0] [from allocator<char>]
!412 = metadata !{i32 786451, metadata !325, metadata !"rebind<char>", metadata !328, i32 104, i64 8, i64 8, i32 0, i32 0, null, metadata !410, i32 0, null, metadata !413} ; [ DW_TAG_structure_type ] [rebind<char>] [line 104, size 8, align 8, offset 0] [from ]
!413 = metadata !{metadata !414}
!414 = metadata !{i32 786479, null, metadata !"_Tp1", metadata !161, null, i32 0, i32 0} ; [ DW_TAG_template_type_parameter ]
!415 = metadata !{i32 786445, metadata !309, metadata !"_M_p", metadata !126, i32 110, i64 64, i64 64, i64 0, i32 0, metadata !416} ; [ DW_TAG_member ] [_M_p] [line 110, size 64, align 64, offset 0] [from pointer]
!416 = metadata !{i32 786454, metadata !305, metadata !"pointer", metadata !126, i32 85, i64 0, i64 0, i64 0, i32 0, metadata !323} ; [ DW_TAG_typedef ] [pointer] [line 85, size 0, align 0, offset 0] [from pointer]
!417 = metadata !{i32 786478, i32 0, metadata !309, metadata !"_Alloc_hider", metadata !"_Alloc_hider", metadata !"", metadata !126, i32 107, metadata !418, i1 false, i1 false, i32 0, i32 0, null, i32 256, i1 false, null, null, i32 0, metadata !90, i32 107} ; [ DW_TAG_subprogram ] [line 107] [_Alloc_hider]
!418 = metadata !{i32 786453, i32 0, metadata !"", i32 0, i32 0, i64 0, i64 0, i64 0, i32 0, null, metadata !419, i32 0, i32 0} ; [ DW_TAG_subroutine_type ] [line 0, size 0, align 0, offset 0] [from ]
!419 = metadata !{null, metadata !420, metadata !416, metadata !385}
!420 = metadata !{i32 786447, i32 0, metadata !"", i32 0, i32 0, i64 64, i64 64, i64 0, i32 1088, metadata !309} ; [ DW_TAG_pointer_type ] [line 0, size 64, align 64, offset 0] [from _Alloc_hider]
!421 = metadata !{i32 786445, metadata !305, metadata !"_M_string_length", metadata !126, i32 114, i64 64, i64 64, i64 64, i32 1, metadata !422} ; [ DW_TAG_member ] [_M_string_length] [line 114, size 64, align 64, offset 64] [private] [from size_type]
!422 = metadata !{i32 786454, metadata !305, metadata !"size_type", metadata !126, i32 81, i64 0, i64 0, i64 0, i32 0, metadata !423} ; [ DW_TAG_typedef ] [size_type] [line 81, size 0, align 0, offset 0] [from size_type]
!423 = metadata !{i32 786454, metadata !316, metadata !"size_type", metadata !126, i32 176, i64 0, i64 0, i64 0, i32 0, metadata !392} ; [ DW_TAG_typedef ] [size_type] [line 176, size 0, align 0, offset 0] [from size_type]
!424 = metadata !{i32 786445, metadata !305, metadata !"", metadata !126, i32 118, i64 128, i64 64, i64 128, i32 1, metadata !425} ; [ DW_TAG_member ] [line 118, size 128, align 64, offset 128] [private] [from ]
!425 = metadata !{i32 786455, metadata !305, metadata !"", metadata !126, i32 118, i64 128, i64 64, i64 0, i32 0, null, metadata !426, i32 0, null} ; [ DW_TAG_union_type ] [line 118, size 128, align 64, offset 0] [from ]
!426 = metadata !{metadata !427, metadata !431}
!427 = metadata !{i32 786445, metadata !425, metadata !"_M_local_buf", metadata !126, i32 120, i64 128, i64 8, i64 0, i32 0, metadata !428} ; [ DW_TAG_member ] [_M_local_buf] [line 120, size 128, align 8, offset 0] [from ]
!428 = metadata !{i32 786433, null, metadata !"", null, i32 0, i64 128, i64 8, i32 0, i32 0, metadata !161, metadata !429, i32 0, i32 0} ; [ DW_TAG_array_type ] [line 0, size 128, align 8, offset 0] [from char]
!429 = metadata !{metadata !430}
!430 = metadata !{i32 786465, i64 0, i64 15}      ; [ DW_TAG_subrange_type ] [0, 15]
!431 = metadata !{i32 786445, metadata !425, metadata !"_M_allocated_capacity", metadata !126, i32 121, i64 64, i64 64, i64 0, i32 0, metadata !422} ; [ DW_TAG_member ] [_M_allocated_capacity] [line 121, size 64, align 64, offset 0] [from size_type]
!432 = metadata !{i32 786478, i32 0, metadata !305, metadata !"_M_data", metadata !"_M_data", metadata !"_ZNSt7__cxx1112basic_stringIcSt11char_traitsIcESaIcEE7_M_dataEPc", metadata !126, i32 125, metadata !433, i1 false, i1 false, i32 0, i32 0, null, i32 257, i1 false, null, null, i32 0, metadata !90, i32 125} ; [ DW_TAG_subprogram ] [line 125] [_M_data]
!433 = metadata !{i32 786453, i32 0, metadata !"", i32 0, i32 0, i64 0, i64 0, i64 0, i32 0, null, metadata !434, i32 0, i32 0} ; [ DW_TAG_subroutine_type ] [line 0, size 0, align 0, offset 0] [from ]
!434 = metadata !{null, metadata !435, metadata !416}
!435 = metadata !{i32 786447, i32 0, metadata !"", i32 0, i32 0, i64 64, i64 64, i64 0, i32 1088, metadata !305} ; [ DW_TAG_pointer_type ] [line 0, size 64, align 64, offset 0] [from basic_string<char>]
!436 = metadata !{i32 786478, i32 0, metadata !305, metadata !"_M_length", metadata !"_M_length", metadata !"_ZNSt7__cxx1112basic_stringIcSt11char_traitsIcESaIcEE9_M_lengthEm", metadata !126, i32 129, metadata !437, i1 false, i1 false, i32 0, i32 0, null, i32 257, i1 false, null, null, i32 0, metadata !90, i32 129} ; [ DW_TAG_subprogram ] [line 129] [_M_length]
!437 = metadata !{i32 786453, i32 0, metadata !"", i32 0, i32 0, i64 0, i64 0, i64 0, i32 0, null, metadata !438, i32 0, i32 0} ; [ DW_TAG_subroutine_type ] [line 0, size 0, align 0, offset 0] [from ]
!438 = metadata !{null, metadata !435, metadata !422}
!439 = metadata !{i32 786478, i32 0, metadata !305, metadata !"_M_data", metadata !"_M_data", metadata !"_ZNKSt7__cxx1112basic_stringIcSt11char_traitsIcESaIcEE7_M_dataEv", metadata !126, i32 133, metadata !440, i1 false, i1 false, i32 0, i32 0, null, i32 257, i1 false, null, null, i32 0, metadata !90, i32 133} ; [ DW_TAG_subprogram ] [line 133] [_M_data]
!440 = metadata !{i32 786453, i32 0, metadata !"", i32 0, i32 0, i64 0, i64 0, i64 0, i32 0, null, metadata !441, i32 0, i32 0} ; [ DW_TAG_subroutine_type ] [line 0, size 0, align 0, offset 0] [from ]
!441 = metadata !{metadata !416, metadata !442}
!442 = metadata !{i32 786447, i32 0, metadata !"", i32 0, i32 0, i64 64, i64 64, i64 0, i32 1088, metadata !443} ; [ DW_TAG_pointer_type ] [line 0, size 64, align 64, offset 0] [from ]
!443 = metadata !{i32 786470, null, metadata !"", null, i32 0, i64 0, i64 0, i64 0, i32 0, metadata !305} ; [ DW_TAG_const_type ] [line 0, size 0, align 0, offset 0] [from basic_string<char>]
!444 = metadata !{i32 786478, i32 0, metadata !305, metadata !"_M_local_data", metadata !"_M_local_data", metadata !"_ZNSt7__cxx1112basic_stringIcSt11char_traitsIcESaIcEE13_M_local_dataEv", metadata !126, i32 137, metadata !445, i1 false, i1 false, i32 0, i32 0, null, i32 257, i1 false, null, null, i32 0, metadata !90, i32 137} ; [ DW_TAG_subprogram ] [line 137] [_M_local_data]
!445 = metadata !{i32 786453, i32 0, metadata !"", i32 0, i32 0, i64 0, i64 0, i64 0, i32 0, null, metadata !446, i32 0, i32 0} ; [ DW_TAG_subroutine_type ] [line 0, size 0, align 0, offset 0] [from ]
!446 = metadata !{metadata !416, metadata !435}
!447 = metadata !{i32 786478, i32 0, metadata !305, metadata !"_M_local_data", metadata !"_M_local_data", metadata !"_ZNKSt7__cxx1112basic_stringIcSt11char_traitsIcESaIcEE13_M_local_dataEv", metadata !126, i32 147, metadata !448, i1 false, i1 false, i32 0, i32 0, null, i32 257, i1 false, null, null, i32 0, metadata !90, i32 147} ; [ DW_TAG_subprogram ] [line 147] [_M_local_data]
!448 = metadata !{i32 786453, i32 0, metadata !"", i32 0, i32 0, i64 0, i64 0, i64 0, i32 0, null, metadata !449, i32 0, i32 0} ; [ DW_TAG_subroutine_type ] [line 0, size 0, align 0, offset 0] [from ]
!449 = metadata !{metadata !450, metadata !442}
!450 = metadata !{i32 786454, metadata !305, metadata !"const_pointer", metadata !306, i32 86, i64 0, i64 0, i64 0, i32 0, metadata !451} ; [ DW_TAG_typedef ] [const_pointer] [line 86, size 0, align 0, offset 0] [from const_pointer]
!451 = metadata !{i32 786454, metadata !316, metadata !"const_pointer", metadata !306, i32 172, i64 0, i64 0, i64 0, i32 0, metadata !452} ; [ DW_TAG_typedef ] [const_pointer] [line 172, size 0, align 0, offset 0] [from const_pointer]
!452 = metadata !{i32 786454, metadata !325, metadata !"const_pointer", metadata !306, i32 98, i64 0, i64 0, i64 0, i32 0, metadata !159} ; [ DW_TAG_typedef ] [const_pointer] [line 98, size 0, align 0, offset 0] [from ]
!453 = metadata !{i32 786478, i32 0, metadata !305, metadata !"_M_capacity", metadata !"_M_capacity", metadata !"_ZNSt7__cxx1112basic_stringIcSt11char_traitsIcESaIcEE11_M_capacityEm", metadata !126, i32 157, metadata !437, i1 false, i1 false, i32 0, i32 0, null, i32 257, i1 false, null, null, i32 0, metadata !90, i32 157} ; [ DW_TAG_subprogram ] [line 157] [_M_capacity]
!454 = metadata !{i32 786478, i32 0, metadata !305, metadata !"_M_set_length", metadata !"_M_set_length", metadata !"_ZNSt7__cxx1112basic_stringIcSt11char_traitsIcESaIcEE13_M_set_lengthEm", metadata !126, i32 161, metadata !437, i1 false, i1 false, i32 0, i32 0, null, i32 257, i1 false, null, null, i32 0, metadata !90, i32 161} ; [ DW_TAG_subprogram ] [line 161] [_M_set_length]
!455 = metadata !{i32 786478, i32 0, metadata !305, metadata !"_M_is_local", metadata !"_M_is_local", metadata !"_ZNKSt7__cxx1112basic_stringIcSt11char_traitsIcESaIcEE11_M_is_localEv", metadata !126, i32 168, metadata !456, i1 false, i1 false, i32 0, i32 0, null, i32 257, i1 false, null, null, i32 0, metadata !90, i32 168} ; [ DW_TAG_subprogram ] [line 168] [_M_is_local]
!456 = metadata !{i32 786453, i32 0, metadata !"", i32 0, i32 0, i64 0, i64 0, i64 0, i32 0, null, metadata !457, i32 0, i32 0} ; [ DW_TAG_subroutine_type ] [line 0, size 0, align 0, offset 0] [from ]
!457 = metadata !{metadata !245, metadata !442}
!458 = metadata !{i32 786478, i32 0, metadata !305, metadata !"_M_create", metadata !"_M_create", metadata !"_ZNSt7__cxx1112basic_stringIcSt11char_traitsIcESaIcEE9_M_createERmm", metadata !126, i32 173, metadata !459, i1 false, i1 false, i32 0, i32 0, null, i32 257, i1 false, null, null, i32 0, metadata !90, i32 173} ; [ DW_TAG_subprogram ] [line 173] [_M_create]
!459 = metadata !{i32 786453, i32 0, metadata !"", i32 0, i32 0, i64 0, i64 0, i64 0, i32 0, null, metadata !460, i32 0, i32 0} ; [ DW_TAG_subroutine_type ] [line 0, size 0, align 0, offset 0] [from ]
!460 = metadata !{metadata !416, metadata !435, metadata !461, metadata !422}
!461 = metadata !{i32 786448, null, null, null, i32 0, i64 0, i64 0, i64 0, i32 0, metadata !422} ; [ DW_TAG_reference_type ] [line 0, size 0, align 0, offset 0] [from size_type]
!462 = metadata !{i32 786478, i32 0, metadata !305, metadata !"_M_dispose", metadata !"_M_dispose", metadata !"_ZNSt7__cxx1112basic_stringIcSt11char_traitsIcESaIcEE10_M_disposeEv", metadata !126, i32 176, metadata !463, i1 false, i1 false, i32 0, i32 0, null, i32 257, i1 false, null, null, i32 0, metadata !90, i32 176} ; [ DW_TAG_subprogram ] [line 176] [_M_dispose]
!463 = metadata !{i32 786453, i32 0, metadata !"", i32 0, i32 0, i64 0, i64 0, i64 0, i32 0, null, metadata !464, i32 0, i32 0} ; [ DW_TAG_subroutine_type ] [line 0, size 0, align 0, offset 0] [from ]
!464 = metadata !{null, metadata !435}
!465 = metadata !{i32 786478, i32 0, metadata !305, metadata !"_M_destroy", metadata !"_M_destroy", metadata !"_ZNSt7__cxx1112basic_stringIcSt11char_traitsIcESaIcEE10_M_destroyEm", metadata !126, i32 183, metadata !437, i1 false, i1 false, i32 0, i32 0, null, i32 257, i1 false, null, null, i32 0, metadata !90, i32 183} ; [ DW_TAG_subprogram ] [line 183] [_M_destroy]
!466 = metadata !{i32 786478, i32 0, metadata !305, metadata !"_M_construct_aux_2", metadata !"_M_construct_aux_2", metadata !"_ZNSt7__cxx1112basic_stringIcSt11char_traitsIcESaIcEE18_M_construct_aux_2Emc", metadata !126, i32 205, metadata !467, i1 false, i1 false, i32 0, i32 0, null, i32 257, i1 false, null, null, i32 0, metadata !90, i32 205} ; [ DW_TAG_subprogram ] [line 205] [_M_construct_aux_2]
!467 = metadata !{i32 786453, i32 0, metadata !"", i32 0, i32 0, i64 0, i64 0, i64 0, i32 0, null, metadata !468, i32 0, i32 0} ; [ DW_TAG_subroutine_type ] [line 0, size 0, align 0, offset 0] [from ]
!468 = metadata !{null, metadata !435, metadata !422, metadata !161}
!469 = metadata !{i32 786478, i32 0, metadata !305, metadata !"_M_construct", metadata !"_M_construct", metadata !"_ZNSt7__cxx1112basic_stringIcSt11char_traitsIcESaIcEE12_M_constructEmc", metadata !126, i32 230, metadata !467, i1 false, i1 false, i32 0, i32 0, null, i32 257, i1 false, null, null, i32 0, metadata !90, i32 230} ; [ DW_TAG_subprogram ] [line 230] [_M_construct]
!470 = metadata !{i32 786478, i32 0, metadata !305, metadata !"_M_get_allocator", metadata !"_M_get_allocator", metadata !"_ZNSt7__cxx1112basic_stringIcSt11char_traitsIcESaIcEE16_M_get_allocatorEv", metadata !126, i32 233, metadata !471, i1 false, i1 false, i32 0, i32 0, null, i32 257, i1 false, null, null, i32 0, metadata !90, i32 233} ; [ DW_TAG_subprogram ] [line 233] [_M_get_allocator]
!471 = metadata !{i32 786453, i32 0, metadata !"", i32 0, i32 0, i64 0, i64 0, i64 0, i32 0, null, metadata !472, i32 0, i32 0} ; [ DW_TAG_subroutine_type ] [line 0, size 0, align 0, offset 0] [from ]
!472 = metadata !{metadata !473, metadata !435}
!473 = metadata !{i32 786448, null, null, null, i32 0, i64 0, i64 0, i64 0, i32 0, metadata !312} ; [ DW_TAG_reference_type ] [line 0, size 0, align 0, offset 0] [from allocator_type]
!474 = metadata !{i32 786478, i32 0, metadata !305, metadata !"_M_get_allocator", metadata !"_M_get_allocator", metadata !"_ZNKSt7__cxx1112basic_stringIcSt11char_traitsIcESaIcEE16_M_get_allocatorEv", metadata !126, i32 237, metadata !475, i1 false, i1 false, i32 0, i32 0, null, i32 257, i1 false, null, null, i32 0, metadata !90, i32 237} ; [ DW_TAG_subprogram ] [line 237] [_M_get_allocator]
!475 = metadata !{i32 786453, i32 0, metadata !"", i32 0, i32 0, i64 0, i64 0, i64 0, i32 0, null, metadata !476, i32 0, i32 0} ; [ DW_TAG_subroutine_type ] [line 0, size 0, align 0, offset 0] [from ]
!476 = metadata !{metadata !477, metadata !442}
!477 = metadata !{i32 786448, null, null, null, i32 0, i64 0, i64 0, i64 0, i32 0, metadata !478} ; [ DW_TAG_reference_type ] [line 0, size 0, align 0, offset 0] [from ]
!478 = metadata !{i32 786470, null, metadata !"", null, i32 0, i64 0, i64 0, i64 0, i32 0, metadata !312} ; [ DW_TAG_const_type ] [line 0, size 0, align 0, offset 0] [from allocator_type]
!479 = metadata !{i32 786478, i32 0, metadata !305, metadata !"_M_check", metadata !"_M_check", metadata !"_ZNKSt7__cxx1112basic_stringIcSt11char_traitsIcESaIcEE8_M_checkEmPKc", metadata !126, i32 257, metadata !480, i1 false, i1 false, i32 0, i32 0, null, i32 257, i1 false, null, null, i32 0, metadata !90, i32 257} ; [ DW_TAG_subprogram ] [line 257] [_M_check]
!480 = metadata !{i32 786453, i32 0, metadata !"", i32 0, i32 0, i64 0, i64 0, i64 0, i32 0, null, metadata !481, i32 0, i32 0} ; [ DW_TAG_subroutine_type ] [line 0, size 0, align 0, offset 0] [from ]
!481 = metadata !{metadata !422, metadata !442, metadata !422, metadata !159}
!482 = metadata !{i32 786478, i32 0, metadata !305, metadata !"_M_check_length", metadata !"_M_check_length", metadata !"_ZNKSt7__cxx1112basic_stringIcSt11char_traitsIcESaIcEE15_M_check_lengthEmmPKc", metadata !126, i32 267, metadata !483, i1 false, i1 false, i32 0, i32 0, null, i32 257, i1 false, null, null, i32 0, metadata !90, i32 267} ; [ DW_TAG_subprogram ] [line 267] [_M_check_length]
!483 = metadata !{i32 786453, i32 0, metadata !"", i32 0, i32 0, i64 0, i64 0, i64 0, i32 0, null, metadata !484, i32 0, i32 0} ; [ DW_TAG_subroutine_type ] [line 0, size 0, align 0, offset 0] [from ]
!484 = metadata !{null, metadata !442, metadata !422, metadata !422, metadata !159}
!485 = metadata !{i32 786478, i32 0, metadata !305, metadata !"_M_limit", metadata !"_M_limit", metadata !"_ZNKSt7__cxx1112basic_stringIcSt11char_traitsIcESaIcEE8_M_limitEmm", metadata !126, i32 276, metadata !486, i1 false, i1 false, i32 0, i32 0, null, i32 257, i1 false, null, null, i32 0, metadata !90, i32 276} ; [ DW_TAG_subprogram ] [line 276] [_M_limit]
!486 = metadata !{i32 786453, i32 0, metadata !"", i32 0, i32 0, i64 0, i64 0, i64 0, i32 0, null, metadata !487, i32 0, i32 0} ; [ DW_TAG_subroutine_type ] [line 0, size 0, align 0, offset 0] [from ]
!487 = metadata !{metadata !422, metadata !442, metadata !422, metadata !422}
!488 = metadata !{i32 786478, i32 0, metadata !305, metadata !"_M_disjunct", metadata !"_M_disjunct", metadata !"_ZNKSt7__cxx1112basic_stringIcSt11char_traitsIcESaIcEE11_M_disjunctEPKc", metadata !126, i32 284, metadata !489, i1 false, i1 false, i32 0, i32 0, null, i32 257, i1 false, null, null, i32 0, metadata !90, i32 284} ; [ DW_TAG_subprogram ] [line 284] [_M_disjunct]
!489 = metadata !{i32 786453, i32 0, metadata !"", i32 0, i32 0, i64 0, i64 0, i64 0, i32 0, null, metadata !490, i32 0, i32 0} ; [ DW_TAG_subroutine_type ] [line 0, size 0, align 0, offset 0] [from ]
!490 = metadata !{metadata !245, metadata !442, metadata !159}
!491 = metadata !{i32 786478, i32 0, metadata !305, metadata !"_S_copy", metadata !"_S_copy", metadata !"_ZNSt7__cxx1112basic_stringIcSt11char_traitsIcESaIcEE7_S_copyEPcPKcm", metadata !126, i32 293, metadata !492, i1 false, i1 false, i32 0, i32 0, null, i32 257, i1 false, null, null, i32 0, metadata !90, i32 293} ; [ DW_TAG_subprogram ] [line 293] [_S_copy]
!492 = metadata !{i32 786453, i32 0, metadata !"", i32 0, i32 0, i64 0, i64 0, i64 0, i32 0, null, metadata !493, i32 0, i32 0} ; [ DW_TAG_subroutine_type ] [line 0, size 0, align 0, offset 0] [from ]
!493 = metadata !{null, metadata !220, metadata !159, metadata !422}
!494 = metadata !{i32 786478, i32 0, metadata !305, metadata !"_S_move", metadata !"_S_move", metadata !"_ZNSt7__cxx1112basic_stringIcSt11char_traitsIcESaIcEE7_S_moveEPcPKcm", metadata !126, i32 302, metadata !492, i1 false, i1 false, i32 0, i32 0, null, i32 257, i1 false, null, null, i32 0, metadata !90, i32 302} ; [ DW_TAG_subprogram ] [line 302] [_S_move]
!495 = metadata !{i32 786478, i32 0, metadata !305, metadata !"_S_assign", metadata !"_S_assign", metadata !"_ZNSt7__cxx1112basic_stringIcSt11char_traitsIcESaIcEE9_S_assignEPcmc", metadata !126, i32 311, metadata !496, i1 false, i1 false, i32 0, i32 0, null, i32 257, i1 false, null, null, i32 0, metadata !90, i32 311} ; [ DW_TAG_subprogram ] [line 311] [_S_assign]
!496 = metadata !{i32 786453, i32 0, metadata !"", i32 0, i32 0, i64 0, i64 0, i64 0, i32 0, null, metadata !497, i32 0, i32 0} ; [ DW_TAG_subroutine_type ] [line 0, size 0, align 0, offset 0] [from ]
!497 = metadata !{null, metadata !220, metadata !422, metadata !161}
!498 = metadata !{i32 786478, i32 0, metadata !305, metadata !"_S_copy_chars", metadata !"_S_copy_chars", metadata !"_ZNSt7__cxx1112basic_stringIcSt11char_traitsIcESaIcEE13_S_copy_charsEPcN9__gnu_cxx17__normal_iteratorIS5_S4_EES8_", metadata !126, i32 330, metadata !499, i1 false, i1 false, i32 0, i32 0, null, i32 257, i1 false, null, null, i32 0, metadata !90, i32 330} ; [ DW_TAG_subprogram ] [line 330] [_S_copy_chars]
!499 = metadata !{i32 786453, i32 0, metadata !"", i32 0, i32 0, i64 0, i64 0, i64 0, i32 0, null, metadata !500, i32 0, i32 0} ; [ DW_TAG_subroutine_type ] [line 0, size 0, align 0, offset 0] [from ]
!500 = metadata !{null, metadata !220, metadata !501, metadata !501}
!501 = metadata !{i32 786454, metadata !305, metadata !"iterator", metadata !306, i32 87, i64 0, i64 0, i64 0, i32 0, metadata !502} ; [ DW_TAG_typedef ] [iterator] [line 87, size 0, align 0, offset 0] [from __normal_iterator<char *, std::__cxx11::basic_string<char> >]
!502 = metadata !{i32 786434, metadata !503, metadata !"__normal_iterator<char *, std::__cxx11::basic_string<char> >", metadata !504, i32 721, i64 0, i64 0, i32 0, i32 4, null, null, i32 0} ; [ DW_TAG_class_type ] [__normal_iterator<char *, std::__cxx11::basic_string<char> >] [line 721, size 0, align 0, offset 0] [fwd] [from ]
!503 = metadata !{i32 786489, null, metadata !"__gnu_cxx", metadata !504, i32 707} ; [ DW_TAG_namespace ] [/home/mingyuanwu/gklee//usr/lib/gcc/x86_64-linux-gnu/5.4.0/../../../../include/c++/5.4.0/bits/stl_iterator.h]
!504 = metadata !{i32 786473, metadata !"/usr/lib/gcc/x86_64-linux-gnu/5.4.0/../../../../include/c++/5.4.0/bits/stl_iterator.h", metadata !"/home/mingyuanwu/gklee", null} ; [ DW_TAG_file_type ]
!505 = metadata !{i32 786478, i32 0, metadata !305, metadata !"_S_copy_chars", metadata !"_S_copy_chars", metadata !"_ZNSt7__cxx1112basic_stringIcSt11char_traitsIcESaIcEE13_S_copy_charsEPcN9__gnu_cxx17__normal_iteratorIPKcS4_EESA_", metadata !126, i32 334, metadata !506, i1 false, i1 false, i32 0, i32 0, null, i32 257, i1 false, null, null, i32 0, metadata !90, i32 334} ; [ DW_TAG_subprogram ] [line 334] [_S_copy_chars]
!506 = metadata !{i32 786453, i32 0, metadata !"", i32 0, i32 0, i64 0, i64 0, i64 0, i32 0, null, metadata !507, i32 0, i32 0} ; [ DW_TAG_subroutine_type ] [line 0, size 0, align 0, offset 0] [from ]
!507 = metadata !{null, metadata !220, metadata !508, metadata !508}
!508 = metadata !{i32 786454, metadata !305, metadata !"const_iterator", metadata !306, i32 89, i64 0, i64 0, i64 0, i32 0, metadata !509} ; [ DW_TAG_typedef ] [const_iterator] [line 89, size 0, align 0, offset 0] [from __normal_iterator<const char *, std::__cxx11::basic_string<char> >]
!509 = metadata !{i32 786434, metadata !503, metadata !"__normal_iterator<const char *, std::__cxx11::basic_string<char> >", metadata !504, i32 721, i64 0, i64 0, i32 0, i32 4, null, null, i32 0} ; [ DW_TAG_class_type ] [__normal_iterator<const char *, std::__cxx11::basic_string<char> >] [line 721, size 0, align 0, offset 0] [fwd] [from ]
!510 = metadata !{i32 786478, i32 0, metadata !305, metadata !"_S_copy_chars", metadata !"_S_copy_chars", metadata !"_ZNSt7__cxx1112basic_stringIcSt11char_traitsIcESaIcEE13_S_copy_charsEPcS5_S5_", metadata !126, i32 339, metadata !511, i1 false, i1 false, i32 0, i32 0, null, i32 257, i1 false, null, null, i32 0, metadata !90, i32 339} ; [ DW_TAG_subprogram ] [line 339] [_S_copy_chars]
!511 = metadata !{i32 786453, i32 0, metadata !"", i32 0, i32 0, i64 0, i64 0, i64 0, i32 0, null, metadata !512, i32 0, i32 0} ; [ DW_TAG_subroutine_type ] [line 0, size 0, align 0, offset 0] [from ]
!512 = metadata !{null, metadata !220, metadata !220, metadata !220}
!513 = metadata !{i32 786478, i32 0, metadata !305, metadata !"_S_copy_chars", metadata !"_S_copy_chars", metadata !"_ZNSt7__cxx1112basic_stringIcSt11char_traitsIcESaIcEE13_S_copy_charsEPcPKcS7_", metadata !126, i32 343, metadata !514, i1 false, i1 false, i32 0, i32 0, null, i32 257, i1 false, null, null, i32 0, metadata !90, i32 343} ; [ DW_TAG_subprogram ] [line 343] [_S_copy_chars]
!514 = metadata !{i32 786453, i32 0, metadata !"", i32 0, i32 0, i64 0, i64 0, i64 0, i32 0, null, metadata !515, i32 0, i32 0} ; [ DW_TAG_subroutine_type ] [line 0, size 0, align 0, offset 0] [from ]
!515 = metadata !{null, metadata !220, metadata !159, metadata !159}
!516 = metadata !{i32 786478, i32 0, metadata !305, metadata !"_S_compare", metadata !"_S_compare", metadata !"_ZNSt7__cxx1112basic_stringIcSt11char_traitsIcESaIcEE10_S_compareEmm", metadata !126, i32 348, metadata !517, i1 false, i1 false, i32 0, i32 0, null, i32 257, i1 false, null, null, i32 0, metadata !90, i32 348} ; [ DW_TAG_subprogram ] [line 348] [_S_compare]
!517 = metadata !{i32 786453, i32 0, metadata !"", i32 0, i32 0, i64 0, i64 0, i64 0, i32 0, null, metadata !518, i32 0, i32 0} ; [ DW_TAG_subroutine_type ] [line 0, size 0, align 0, offset 0] [from ]
!518 = metadata !{metadata !62, metadata !422, metadata !422}
!519 = metadata !{i32 786478, i32 0, metadata !305, metadata !"_M_assign", metadata !"_M_assign", metadata !"_ZNSt7__cxx1112basic_stringIcSt11char_traitsIcESaIcEE9_M_assignERKS4_", metadata !126, i32 361, metadata !520, i1 false, i1 false, i32 0, i32 0, null, i32 257, i1 false, null, null, i32 0, metadata !90, i32 361} ; [ DW_TAG_subprogram ] [line 361] [_M_assign]
!520 = metadata !{i32 786453, i32 0, metadata !"", i32 0, i32 0, i64 0, i64 0, i64 0, i32 0, null, metadata !521, i32 0, i32 0} ; [ DW_TAG_subroutine_type ] [line 0, size 0, align 0, offset 0] [from ]
!521 = metadata !{null, metadata !435, metadata !522}
!522 = metadata !{i32 786448, null, null, null, i32 0, i64 0, i64 0, i64 0, i32 0, metadata !443} ; [ DW_TAG_reference_type ] [line 0, size 0, align 0, offset 0] [from ]
!523 = metadata !{i32 786478, i32 0, metadata !305, metadata !"_M_mutate", metadata !"_M_mutate", metadata !"_ZNSt7__cxx1112basic_stringIcSt11char_traitsIcESaIcEE9_M_mutateEmmPKcm", metadata !126, i32 364, metadata !524, i1 false, i1 false, i32 0, i32 0, null, i32 257, i1 false, null, null, i32 0, metadata !90, i32 364} ; [ DW_TAG_subprogram ] [line 364] [_M_mutate]
!524 = metadata !{i32 786453, i32 0, metadata !"", i32 0, i32 0, i64 0, i64 0, i64 0, i32 0, null, metadata !525, i32 0, i32 0} ; [ DW_TAG_subroutine_type ] [line 0, size 0, align 0, offset 0] [from ]
!525 = metadata !{null, metadata !435, metadata !422, metadata !422, metadata !159, metadata !422}
!526 = metadata !{i32 786478, i32 0, metadata !305, metadata !"_M_erase", metadata !"_M_erase", metadata !"_ZNSt7__cxx1112basic_stringIcSt11char_traitsIcESaIcEE8_M_eraseEmm", metadata !126, i32 368, metadata !527, i1 false, i1 false, i32 0, i32 0, null, i32 257, i1 false, null, null, i32 0, metadata !90, i32 368} ; [ DW_TAG_subprogram ] [line 368] [_M_erase]
!527 = metadata !{i32 786453, i32 0, metadata !"", i32 0, i32 0, i64 0, i64 0, i64 0, i32 0, null, metadata !528, i32 0, i32 0} ; [ DW_TAG_subroutine_type ] [line 0, size 0, align 0, offset 0] [from ]
!528 = metadata !{null, metadata !435, metadata !422, metadata !422}
!529 = metadata !{i32 786478, i32 0, metadata !305, metadata !"basic_string", metadata !"basic_string", metadata !"", metadata !126, i32 378, metadata !463, i1 false, i1 false, i32 0, i32 0, null, i32 256, i1 false, null, null, i32 0, metadata !90, i32 378} ; [ DW_TAG_subprogram ] [line 378] [basic_string]
!530 = metadata !{i32 786478, i32 0, metadata !305, metadata !"basic_string", metadata !"basic_string", metadata !"", metadata !126, i32 389, metadata !531, i1 false, i1 false, i32 0, i32 0, null, i32 384, i1 false, null, null, i32 0, metadata !90, i32 389} ; [ DW_TAG_subprogram ] [line 389] [basic_string]
!531 = metadata !{i32 786453, i32 0, metadata !"", i32 0, i32 0, i64 0, i64 0, i64 0, i32 0, null, metadata !532, i32 0, i32 0} ; [ DW_TAG_subroutine_type ] [line 0, size 0, align 0, offset 0] [from ]
!532 = metadata !{null, metadata !435, metadata !385}
!533 = metadata !{i32 786478, i32 0, metadata !305, metadata !"basic_string", metadata !"basic_string", metadata !"", metadata !126, i32 397, metadata !520, i1 false, i1 false, i32 0, i32 0, null, i32 256, i1 false, null, null, i32 0, metadata !90, i32 397} ; [ DW_TAG_subprogram ] [line 397] [basic_string]
!534 = metadata !{i32 786478, i32 0, metadata !305, metadata !"basic_string", metadata !"basic_string", metadata !"", metadata !126, i32 409, metadata !535, i1 false, i1 false, i32 0, i32 0, null, i32 256, i1 false, null, null, i32 0, metadata !90, i32 409} ; [ DW_TAG_subprogram ] [line 409] [basic_string]
!535 = metadata !{i32 786453, i32 0, metadata !"", i32 0, i32 0, i64 0, i64 0, i64 0, i32 0, null, metadata !536, i32 0, i32 0} ; [ DW_TAG_subroutine_type ] [line 0, size 0, align 0, offset 0] [from ]
!536 = metadata !{null, metadata !435, metadata !522, metadata !422, metadata !422}
!537 = metadata !{i32 786478, i32 0, metadata !305, metadata !"basic_string", metadata !"basic_string", metadata !"", metadata !126, i32 425, metadata !538, i1 false, i1 false, i32 0, i32 0, null, i32 256, i1 false, null, null, i32 0, metadata !90, i32 425} ; [ DW_TAG_subprogram ] [line 425] [basic_string]
!538 = metadata !{i32 786453, i32 0, metadata !"", i32 0, i32 0, i64 0, i64 0, i64 0, i32 0, null, metadata !539, i32 0, i32 0} ; [ DW_TAG_subroutine_type ] [line 0, size 0, align 0, offset 0] [from ]
!539 = metadata !{null, metadata !435, metadata !522, metadata !422, metadata !422, metadata !385}
!540 = metadata !{i32 786478, i32 0, metadata !305, metadata !"basic_string", metadata !"basic_string", metadata !"", metadata !126, i32 443, metadata !541, i1 false, i1 false, i32 0, i32 0, null, i32 256, i1 false, null, null, i32 0, metadata !90, i32 443} ; [ DW_TAG_subprogram ] [line 443] [basic_string]
!541 = metadata !{i32 786453, i32 0, metadata !"", i32 0, i32 0, i64 0, i64 0, i64 0, i32 0, null, metadata !542, i32 0, i32 0} ; [ DW_TAG_subroutine_type ] [line 0, size 0, align 0, offset 0] [from ]
!542 = metadata !{null, metadata !435, metadata !159, metadata !422, metadata !385}
!543 = metadata !{i32 786478, i32 0, metadata !305, metadata !"basic_string", metadata !"basic_string", metadata !"", metadata !126, i32 453, metadata !544, i1 false, i1 false, i32 0, i32 0, null, i32 256, i1 false, null, null, i32 0, metadata !90, i32 453} ; [ DW_TAG_subprogram ] [line 453] [basic_string]
!544 = metadata !{i32 786453, i32 0, metadata !"", i32 0, i32 0, i64 0, i64 0, i64 0, i32 0, null, metadata !545, i32 0, i32 0} ; [ DW_TAG_subroutine_type ] [line 0, size 0, align 0, offset 0] [from ]
!545 = metadata !{null, metadata !435, metadata !159, metadata !385}
!546 = metadata !{i32 786478, i32 0, metadata !305, metadata !"basic_string", metadata !"basic_string", metadata !"", metadata !126, i32 463, metadata !547, i1 false, i1 false, i32 0, i32 0, null, i32 256, i1 false, null, null, i32 0, metadata !90, i32 463} ; [ DW_TAG_subprogram ] [line 463] [basic_string]
!547 = metadata !{i32 786453, i32 0, metadata !"", i32 0, i32 0, i64 0, i64 0, i64 0, i32 0, null, metadata !548, i32 0, i32 0} ; [ DW_TAG_subroutine_type ] [line 0, size 0, align 0, offset 0] [from ]
!548 = metadata !{null, metadata !435, metadata !422, metadata !161, metadata !385}
!549 = metadata !{i32 786478, i32 0, metadata !305, metadata !"~basic_string", metadata !"~basic_string", metadata !"", metadata !126, i32 541, metadata !463, i1 false, i1 false, i32 0, i32 0, null, i32 256, i1 false, null, null, i32 0, metadata !90, i32 541} ; [ DW_TAG_subprogram ] [line 541] [~basic_string]
!550 = metadata !{i32 786478, i32 0, metadata !305, metadata !"operator=", metadata !"operator=", metadata !"_ZNSt7__cxx1112basic_stringIcSt11char_traitsIcESaIcEEaSERKS4_", metadata !126, i32 549, metadata !551, i1 false, i1 false, i32 0, i32 0, null, i32 256, i1 false, null, null, i32 0, metadata !90, i32 549} ; [ DW_TAG_subprogram ] [line 549] [operator=]
!551 = metadata !{i32 786453, i32 0, metadata !"", i32 0, i32 0, i64 0, i64 0, i64 0, i32 0, null, metadata !552, i32 0, i32 0} ; [ DW_TAG_subroutine_type ] [line 0, size 0, align 0, offset 0] [from ]
!552 = metadata !{metadata !553, metadata !435, metadata !522}
!553 = metadata !{i32 786448, null, null, null, i32 0, i64 0, i64 0, i64 0, i32 0, metadata !305} ; [ DW_TAG_reference_type ] [line 0, size 0, align 0, offset 0] [from basic_string<char>]
!554 = metadata !{i32 786478, i32 0, metadata !305, metadata !"operator=", metadata !"operator=", metadata !"_ZNSt7__cxx1112basic_stringIcSt11char_traitsIcESaIcEEaSEPKc", metadata !126, i32 557, metadata !555, i1 false, i1 false, i32 0, i32 0, null, i32 256, i1 false, null, null, i32 0, metadata !90, i32 557} ; [ DW_TAG_subprogram ] [line 557] [operator=]
!555 = metadata !{i32 786453, i32 0, metadata !"", i32 0, i32 0, i64 0, i64 0, i64 0, i32 0, null, metadata !556, i32 0, i32 0} ; [ DW_TAG_subroutine_type ] [line 0, size 0, align 0, offset 0] [from ]
!556 = metadata !{metadata !553, metadata !435, metadata !159}
!557 = metadata !{i32 786478, i32 0, metadata !305, metadata !"operator=", metadata !"operator=", metadata !"_ZNSt7__cxx1112basic_stringIcSt11char_traitsIcESaIcEEaSEc", metadata !126, i32 568, metadata !558, i1 false, i1 false, i32 0, i32 0, null, i32 256, i1 false, null, null, i32 0, metadata !90, i32 568} ; [ DW_TAG_subprogram ] [line 568] [operator=]
!558 = metadata !{i32 786453, i32 0, metadata !"", i32 0, i32 0, i64 0, i64 0, i64 0, i32 0, null, metadata !559, i32 0, i32 0} ; [ DW_TAG_subroutine_type ] [line 0, size 0, align 0, offset 0] [from ]
!559 = metadata !{metadata !553, metadata !435, metadata !161}
!560 = metadata !{i32 786478, i32 0, metadata !305, metadata !"begin", metadata !"begin", metadata !"_ZNSt7__cxx1112basic_stringIcSt11char_traitsIcESaIcEE5beginEv", metadata !126, i32 610, metadata !561, i1 false, i1 false, i32 0, i32 0, null, i32 256, i1 false, null, null, i32 0, metadata !90, i32 610} ; [ DW_TAG_subprogram ] [line 610] [begin]
!561 = metadata !{i32 786453, i32 0, metadata !"", i32 0, i32 0, i64 0, i64 0, i64 0, i32 0, null, metadata !562, i32 0, i32 0} ; [ DW_TAG_subroutine_type ] [line 0, size 0, align 0, offset 0] [from ]
!562 = metadata !{metadata !501, metadata !435}
!563 = metadata !{i32 786478, i32 0, metadata !305, metadata !"begin", metadata !"begin", metadata !"_ZNKSt7__cxx1112basic_stringIcSt11char_traitsIcESaIcEE5beginEv", metadata !126, i32 618, metadata !564, i1 false, i1 false, i32 0, i32 0, null, i32 256, i1 false, null, null, i32 0, metadata !90, i32 618} ; [ DW_TAG_subprogram ] [line 618] [begin]
!564 = metadata !{i32 786453, i32 0, metadata !"", i32 0, i32 0, i64 0, i64 0, i64 0, i32 0, null, metadata !565, i32 0, i32 0} ; [ DW_TAG_subroutine_type ] [line 0, size 0, align 0, offset 0] [from ]
!565 = metadata !{metadata !508, metadata !442}
!566 = metadata !{i32 786478, i32 0, metadata !305, metadata !"end", metadata !"end", metadata !"_ZNSt7__cxx1112basic_stringIcSt11char_traitsIcESaIcEE3endEv", metadata !126, i32 626, metadata !561, i1 false, i1 false, i32 0, i32 0, null, i32 256, i1 false, null, null, i32 0, metadata !90, i32 626} ; [ DW_TAG_subprogram ] [line 626] [end]
!567 = metadata !{i32 786478, i32 0, metadata !305, metadata !"end", metadata !"end", metadata !"_ZNKSt7__cxx1112basic_stringIcSt11char_traitsIcESaIcEE3endEv", metadata !126, i32 634, metadata !564, i1 false, i1 false, i32 0, i32 0, null, i32 256, i1 false, null, null, i32 0, metadata !90, i32 634} ; [ DW_TAG_subprogram ] [line 634] [end]
!568 = metadata !{i32 786478, i32 0, metadata !305, metadata !"rbegin", metadata !"rbegin", metadata !"_ZNSt7__cxx1112basic_stringIcSt11char_traitsIcESaIcEE6rbeginEv", metadata !126, i32 643, metadata !569, i1 false, i1 false, i32 0, i32 0, null, i32 256, i1 false, null, null, i32 0, metadata !90, i32 643} ; [ DW_TAG_subprogram ] [line 643] [rbegin]
!569 = metadata !{i32 786453, i32 0, metadata !"", i32 0, i32 0, i64 0, i64 0, i64 0, i32 0, null, metadata !570, i32 0, i32 0} ; [ DW_TAG_subroutine_type ] [line 0, size 0, align 0, offset 0] [from ]
!570 = metadata !{metadata !571, metadata !435}
!571 = metadata !{i32 786454, metadata !305, metadata !"reverse_iterator", metadata !306, i32 91, i64 0, i64 0, i64 0, i32 0, metadata !572} ; [ DW_TAG_typedef ] [reverse_iterator] [line 91, size 0, align 0, offset 0] [from reverse_iterator<__gnu_cxx::__normal_iterator<char *, std::__cxx11::basic_string<char> > >]
!572 = metadata !{i32 786434, metadata !573, metadata !"reverse_iterator<__gnu_cxx::__normal_iterator<char *, std::__cxx11::basic_string<char> > >", metadata !504, i32 97, i64 0, i64 0, i32 0, i32 4, null, null, i32 0} ; [ DW_TAG_class_type ] [reverse_iterator<__gnu_cxx::__normal_iterator<char *, std::__cxx11::basic_string<char> > >] [line 97, size 0, align 0, offset 0] [fwd] [from ]
!573 = metadata !{i32 786489, null, metadata !"std", metadata !504, i32 68} ; [ DW_TAG_namespace ] [/home/mingyuanwu/gklee//usr/lib/gcc/x86_64-linux-gnu/5.4.0/../../../../include/c++/5.4.0/bits/stl_iterator.h]
!574 = metadata !{i32 786478, i32 0, metadata !305, metadata !"rbegin", metadata !"rbegin", metadata !"_ZNKSt7__cxx1112basic_stringIcSt11char_traitsIcESaIcEE6rbeginEv", metadata !126, i32 652, metadata !575, i1 false, i1 false, i32 0, i32 0, null, i32 256, i1 false, null, null, i32 0, metadata !90, i32 652} ; [ DW_TAG_subprogram ] [line 652] [rbegin]
!575 = metadata !{i32 786453, i32 0, metadata !"", i32 0, i32 0, i64 0, i64 0, i64 0, i32 0, null, metadata !576, i32 0, i32 0} ; [ DW_TAG_subroutine_type ] [line 0, size 0, align 0, offset 0] [from ]
!576 = metadata !{metadata !577, metadata !442}
!577 = metadata !{i32 786454, metadata !305, metadata !"const_reverse_iterator", metadata !306, i32 90, i64 0, i64 0, i64 0, i32 0, metadata !578} ; [ DW_TAG_typedef ] [const_reverse_iterator] [line 90, size 0, align 0, offset 0] [from reverse_iterator<__gnu_cxx::__normal_iterator<const char *, std::__cxx11::basic_string<char> > >]
!578 = metadata !{i32 786434, metadata !573, metadata !"reverse_iterator<__gnu_cxx::__normal_iterator<const char *, std::__cxx11::basic_string<char> > >", metadata !504, i32 97, i64 0, i64 0, i32 0, i32 4, null, null, i32 0} ; [ DW_TAG_class_type ] [reverse_iterator<__gnu_cxx::__normal_iterator<const char *, std::__cxx11::basic_string<char> > >] [line 97, size 0, align 0, offset 0] [fwd] [from ]
!579 = metadata !{i32 786478, i32 0, metadata !305, metadata !"rend", metadata !"rend", metadata !"_ZNSt7__cxx1112basic_stringIcSt11char_traitsIcESaIcEE4rendEv", metadata !126, i32 661, metadata !569, i1 false, i1 false, i32 0, i32 0, null, i32 256, i1 false, null, null, i32 0, metadata !90, i32 661} ; [ DW_TAG_subprogram ] [line 661] [rend]
!580 = metadata !{i32 786478, i32 0, metadata !305, metadata !"rend", metadata !"rend", metadata !"_ZNKSt7__cxx1112basic_stringIcSt11char_traitsIcESaIcEE4rendEv", metadata !126, i32 670, metadata !575, i1 false, i1 false, i32 0, i32 0, null, i32 256, i1 false, null, null, i32 0, metadata !90, i32 670} ; [ DW_TAG_subprogram ] [line 670] [rend]
!581 = metadata !{i32 786478, i32 0, metadata !305, metadata !"size", metadata !"size", metadata !"_ZNKSt7__cxx1112basic_stringIcSt11char_traitsIcESaIcEE4sizeEv", metadata !126, i32 714, metadata !582, i1 false, i1 false, i32 0, i32 0, null, i32 256, i1 false, null, null, i32 0, metadata !90, i32 714} ; [ DW_TAG_subprogram ] [line 714] [size]
!582 = metadata !{i32 786453, i32 0, metadata !"", i32 0, i32 0, i64 0, i64 0, i64 0, i32 0, null, metadata !583, i32 0, i32 0} ; [ DW_TAG_subroutine_type ] [line 0, size 0, align 0, offset 0] [from ]
!583 = metadata !{metadata !422, metadata !442}
!584 = metadata !{i32 786478, i32 0, metadata !305, metadata !"length", metadata !"length", metadata !"_ZNKSt7__cxx1112basic_stringIcSt11char_traitsIcESaIcEE6lengthEv", metadata !126, i32 720, metadata !582, i1 false, i1 false, i32 0, i32 0, null, i32 256, i1 false, null, null, i32 0, metadata !90, i32 720} ; [ DW_TAG_subprogram ] [line 720] [length]
!585 = metadata !{i32 786478, i32 0, metadata !305, metadata !"max_size", metadata !"max_size", metadata !"_ZNKSt7__cxx1112basic_stringIcSt11char_traitsIcESaIcEE8max_sizeEv", metadata !126, i32 725, metadata !582, i1 false, i1 false, i32 0, i32 0, null, i32 256, i1 false, null, null, i32 0, metadata !90, i32 725} ; [ DW_TAG_subprogram ] [line 725] [max_size]
!586 = metadata !{i32 786478, i32 0, metadata !305, metadata !"resize", metadata !"resize", metadata !"_ZNSt7__cxx1112basic_stringIcSt11char_traitsIcESaIcEE6resizeEmc", metadata !126, i32 739, metadata !467, i1 false, i1 false, i32 0, i32 0, null, i32 256, i1 false, null, null, i32 0, metadata !90, i32 739} ; [ DW_TAG_subprogram ] [line 739] [resize]
!587 = metadata !{i32 786478, i32 0, metadata !305, metadata !"resize", metadata !"resize", metadata !"_ZNSt7__cxx1112basic_stringIcSt11char_traitsIcESaIcEE6resizeEm", metadata !126, i32 752, metadata !437, i1 false, i1 false, i32 0, i32 0, null, i32 256, i1 false, null, null, i32 0, metadata !90, i32 752} ; [ DW_TAG_subprogram ] [line 752] [resize]
!588 = metadata !{i32 786478, i32 0, metadata !305, metadata !"capacity", metadata !"capacity", metadata !"_ZNKSt7__cxx1112basic_stringIcSt11char_traitsIcESaIcEE8capacityEv", metadata !126, i32 777, metadata !582, i1 false, i1 false, i32 0, i32 0, null, i32 256, i1 false, null, null, i32 0, metadata !90, i32 777} ; [ DW_TAG_subprogram ] [line 777] [capacity]
!589 = metadata !{i32 786478, i32 0, metadata !305, metadata !"reserve", metadata !"reserve", metadata !"_ZNSt7__cxx1112basic_stringIcSt11char_traitsIcESaIcEE7reserveEm", metadata !126, i32 801, metadata !437, i1 false, i1 false, i32 0, i32 0, null, i32 256, i1 false, null, null, i32 0, metadata !90, i32 801} ; [ DW_TAG_subprogram ] [line 801] [reserve]
!590 = metadata !{i32 786478, i32 0, metadata !305, metadata !"clear", metadata !"clear", metadata !"_ZNSt7__cxx1112basic_stringIcSt11char_traitsIcESaIcEE5clearEv", metadata !126, i32 807, metadata !463, i1 false, i1 false, i32 0, i32 0, null, i32 256, i1 false, null, null, i32 0, metadata !90, i32 807} ; [ DW_TAG_subprogram ] [line 807] [clear]
!591 = metadata !{i32 786478, i32 0, metadata !305, metadata !"empty", metadata !"empty", metadata !"_ZNKSt7__cxx1112basic_stringIcSt11char_traitsIcESaIcEE5emptyEv", metadata !126, i32 815, metadata !456, i1 false, i1 false, i32 0, i32 0, null, i32 256, i1 false, null, null, i32 0, metadata !90, i32 815} ; [ DW_TAG_subprogram ] [line 815] [empty]
!592 = metadata !{i32 786478, i32 0, metadata !305, metadata !"operator[]", metadata !"operator[]", metadata !"_ZNKSt7__cxx1112basic_stringIcSt11char_traitsIcESaIcEEixEm", metadata !126, i32 830, metadata !593, i1 false, i1 false, i32 0, i32 0, null, i32 256, i1 false, null, null, i32 0, metadata !90, i32 830} ; [ DW_TAG_subprogram ] [line 830] [operator[]]
!593 = metadata !{i32 786453, i32 0, metadata !"", i32 0, i32 0, i64 0, i64 0, i64 0, i32 0, null, metadata !594, i32 0, i32 0} ; [ DW_TAG_subroutine_type ] [line 0, size 0, align 0, offset 0] [from ]
!594 = metadata !{metadata !595, metadata !442, metadata !422}
!595 = metadata !{i32 786454, metadata !305, metadata !"const_reference", metadata !306, i32 84, i64 0, i64 0, i64 0, i32 0, metadata !596} ; [ DW_TAG_typedef ] [const_reference] [line 84, size 0, align 0, offset 0] [from const_reference]
!596 = metadata !{i32 786454, metadata !316, metadata !"const_reference", metadata !306, i32 175, i64 0, i64 0, i64 0, i32 0, metadata !597} ; [ DW_TAG_typedef ] [const_reference] [line 175, size 0, align 0, offset 0] [from const_reference]
!597 = metadata !{i32 786454, metadata !325, metadata !"const_reference", metadata !306, i32 100, i64 0, i64 0, i64 0, i32 0, metadata !357} ; [ DW_TAG_typedef ] [const_reference] [line 100, size 0, align 0, offset 0] [from ]
!598 = metadata !{i32 786478, i32 0, metadata !305, metadata !"operator[]", metadata !"operator[]", metadata !"_ZNSt7__cxx1112basic_stringIcSt11char_traitsIcESaIcEEixEm", metadata !126, i32 847, metadata !599, i1 false, i1 false, i32 0, i32 0, null, i32 256, i1 false, null, null, i32 0, metadata !90, i32 847} ; [ DW_TAG_subprogram ] [line 847] [operator[]]
!599 = metadata !{i32 786453, i32 0, metadata !"", i32 0, i32 0, i64 0, i64 0, i64 0, i32 0, null, metadata !600, i32 0, i32 0} ; [ DW_TAG_subroutine_type ] [line 0, size 0, align 0, offset 0] [from ]
!600 = metadata !{metadata !601, metadata !435, metadata !422}
!601 = metadata !{i32 786454, metadata !305, metadata !"reference", metadata !306, i32 83, i64 0, i64 0, i64 0, i32 0, metadata !602} ; [ DW_TAG_typedef ] [reference] [line 83, size 0, align 0, offset 0] [from reference]
!602 = metadata !{i32 786454, metadata !316, metadata !"reference", metadata !306, i32 174, i64 0, i64 0, i64 0, i32 0, metadata !603} ; [ DW_TAG_typedef ] [reference] [line 174, size 0, align 0, offset 0] [from reference]
!603 = metadata !{i32 786454, metadata !325, metadata !"reference", metadata !306, i32 99, i64 0, i64 0, i64 0, i32 0, metadata !351} ; [ DW_TAG_typedef ] [reference] [line 99, size 0, align 0, offset 0] [from ]
!604 = metadata !{i32 786478, i32 0, metadata !305, metadata !"at", metadata !"at", metadata !"_ZNKSt7__cxx1112basic_stringIcSt11char_traitsIcESaIcEE2atEm", metadata !126, i32 868, metadata !593, i1 false, i1 false, i32 0, i32 0, null, i32 256, i1 false, null, null, i32 0, metadata !90, i32 868} ; [ DW_TAG_subprogram ] [line 868] [at]
!605 = metadata !{i32 786478, i32 0, metadata !305, metadata !"at", metadata !"at", metadata !"_ZNSt7__cxx1112basic_stringIcSt11char_traitsIcESaIcEE2atEm", metadata !126, i32 889, metadata !599, i1 false, i1 false, i32 0, i32 0, null, i32 256, i1 false, null, null, i32 0, metadata !90, i32 889} ; [ DW_TAG_subprogram ] [line 889] [at]
!606 = metadata !{i32 786478, i32 0, metadata !305, metadata !"operator+=", metadata !"operator+=", metadata !"_ZNSt7__cxx1112basic_stringIcSt11char_traitsIcESaIcEEpLERKS4_", metadata !126, i32 940, metadata !551, i1 false, i1 false, i32 0, i32 0, null, i32 256, i1 false, null, null, i32 0, metadata !90, i32 940} ; [ DW_TAG_subprogram ] [line 940] [operator+=]
!607 = metadata !{i32 786478, i32 0, metadata !305, metadata !"operator+=", metadata !"operator+=", metadata !"_ZNSt7__cxx1112basic_stringIcSt11char_traitsIcESaIcEEpLEPKc", metadata !126, i32 949, metadata !555, i1 false, i1 false, i32 0, i32 0, null, i32 256, i1 false, null, null, i32 0, metadata !90, i32 949} ; [ DW_TAG_subprogram ] [line 949] [operator+=]
!608 = metadata !{i32 786478, i32 0, metadata !305, metadata !"operator+=", metadata !"operator+=", metadata !"_ZNSt7__cxx1112basic_stringIcSt11char_traitsIcESaIcEEpLEc", metadata !126, i32 958, metadata !558, i1 false, i1 false, i32 0, i32 0, null, i32 256, i1 false, null, null, i32 0, metadata !90, i32 958} ; [ DW_TAG_subprogram ] [line 958] [operator+=]
!609 = metadata !{i32 786478, i32 0, metadata !305, metadata !"append", metadata !"append", metadata !"_ZNSt7__cxx1112basic_stringIcSt11char_traitsIcESaIcEE6appendERKS4_", metadata !126, i32 981, metadata !551, i1 false, i1 false, i32 0, i32 0, null, i32 256, i1 false, null, null, i32 0, metadata !90, i32 981} ; [ DW_TAG_subprogram ] [line 981] [append]
!610 = metadata !{i32 786478, i32 0, metadata !305, metadata !"append", metadata !"append", metadata !"_ZNSt7__cxx1112basic_stringIcSt11char_traitsIcESaIcEE6appendERKS4_mm", metadata !126, i32 998, metadata !611, i1 false, i1 false, i32 0, i32 0, null, i32 256, i1 false, null, null, i32 0, metadata !90, i32 998} ; [ DW_TAG_subprogram ] [line 998] [append]
!611 = metadata !{i32 786453, i32 0, metadata !"", i32 0, i32 0, i64 0, i64 0, i64 0, i32 0, null, metadata !612, i32 0, i32 0} ; [ DW_TAG_subroutine_type ] [line 0, size 0, align 0, offset 0] [from ]
!612 = metadata !{metadata !553, metadata !435, metadata !522, metadata !422, metadata !422}
!613 = metadata !{i32 786478, i32 0, metadata !305, metadata !"append", metadata !"append", metadata !"_ZNSt7__cxx1112basic_stringIcSt11char_traitsIcESaIcEE6appendEPKcm", metadata !126, i32 1010, metadata !614, i1 false, i1 false, i32 0, i32 0, null, i32 256, i1 false, null, null, i32 0, metadata !90, i32 1010} ; [ DW_TAG_subprogram ] [line 1010] [append]
!614 = metadata !{i32 786453, i32 0, metadata !"", i32 0, i32 0, i64 0, i64 0, i64 0, i32 0, null, metadata !615, i32 0, i32 0} ; [ DW_TAG_subroutine_type ] [line 0, size 0, align 0, offset 0] [from ]
!615 = metadata !{metadata !553, metadata !435, metadata !159, metadata !422}
!616 = metadata !{i32 786478, i32 0, metadata !305, metadata !"append", metadata !"append", metadata !"_ZNSt7__cxx1112basic_stringIcSt11char_traitsIcESaIcEE6appendEPKc", metadata !126, i32 1023, metadata !555, i1 false, i1 false, i32 0, i32 0, null, i32 256, i1 false, null, null, i32 0, metadata !90, i32 1023} ; [ DW_TAG_subprogram ] [line 1023] [append]
!617 = metadata !{i32 786478, i32 0, metadata !305, metadata !"append", metadata !"append", metadata !"_ZNSt7__cxx1112basic_stringIcSt11char_traitsIcESaIcEE6appendEmc", metadata !126, i32 1040, metadata !618, i1 false, i1 false, i32 0, i32 0, null, i32 256, i1 false, null, null, i32 0, metadata !90, i32 1040} ; [ DW_TAG_subprogram ] [line 1040] [append]
!618 = metadata !{i32 786453, i32 0, metadata !"", i32 0, i32 0, i64 0, i64 0, i64 0, i32 0, null, metadata !619, i32 0, i32 0} ; [ DW_TAG_subroutine_type ] [line 0, size 0, align 0, offset 0] [from ]
!619 = metadata !{metadata !553, metadata !435, metadata !422, metadata !161}
!620 = metadata !{i32 786478, i32 0, metadata !305, metadata !"push_back", metadata !"push_back", metadata !"_ZNSt7__cxx1112basic_stringIcSt11char_traitsIcESaIcEE9push_backEc", metadata !126, i32 1077, metadata !621, i1 false, i1 false, i32 0, i32 0, null, i32 256, i1 false, null, null, i32 0, metadata !90, i32 1077} ; [ DW_TAG_subprogram ] [line 1077] [push_back]
!621 = metadata !{i32 786453, i32 0, metadata !"", i32 0, i32 0, i64 0, i64 0, i64 0, i32 0, null, metadata !622, i32 0, i32 0} ; [ DW_TAG_subroutine_type ] [line 0, size 0, align 0, offset 0] [from ]
!622 = metadata !{null, metadata !435, metadata !161}
!623 = metadata !{i32 786478, i32 0, metadata !305, metadata !"assign", metadata !"assign", metadata !"_ZNSt7__cxx1112basic_stringIcSt11char_traitsIcESaIcEE6assignERKS4_", metadata !126, i32 1092, metadata !551, i1 false, i1 false, i32 0, i32 0, null, i32 256, i1 false, null, null, i32 0, metadata !90, i32 1092} ; [ DW_TAG_subprogram ] [line 1092] [assign]
!624 = metadata !{i32 786478, i32 0, metadata !305, metadata !"assign", metadata !"assign", metadata !"_ZNSt7__cxx1112basic_stringIcSt11char_traitsIcESaIcEE6assignERKS4_mm", metadata !126, i32 1130, metadata !611, i1 false, i1 false, i32 0, i32 0, null, i32 256, i1 false, null, null, i32 0, metadata !90, i32 1130} ; [ DW_TAG_subprogram ] [line 1130] [assign]
!625 = metadata !{i32 786478, i32 0, metadata !305, metadata !"assign", metadata !"assign", metadata !"_ZNSt7__cxx1112basic_stringIcSt11char_traitsIcESaIcEE6assignEPKcm", metadata !126, i32 1146, metadata !614, i1 false, i1 false, i32 0, i32 0, null, i32 256, i1 false, null, null, i32 0, metadata !90, i32 1146} ; [ DW_TAG_subprogram ] [line 1146] [assign]
!626 = metadata !{i32 786478, i32 0, metadata !305, metadata !"assign", metadata !"assign", metadata !"_ZNSt7__cxx1112basic_stringIcSt11char_traitsIcESaIcEE6assignEPKc", metadata !126, i32 1162, metadata !555, i1 false, i1 false, i32 0, i32 0, null, i32 256, i1 false, null, null, i32 0, metadata !90, i32 1162} ; [ DW_TAG_subprogram ] [line 1162] [assign]
!627 = metadata !{i32 786478, i32 0, metadata !305, metadata !"assign", metadata !"assign", metadata !"_ZNSt7__cxx1112basic_stringIcSt11char_traitsIcESaIcEE6assignEmc", metadata !126, i32 1179, metadata !618, i1 false, i1 false, i32 0, i32 0, null, i32 256, i1 false, null, null, i32 0, metadata !90, i32 1179} ; [ DW_TAG_subprogram ] [line 1179] [assign]
!628 = metadata !{i32 786478, i32 0, metadata !305, metadata !"insert", metadata !"insert", metadata !"_ZNSt7__cxx1112basic_stringIcSt11char_traitsIcESaIcEE6insertEN9__gnu_cxx17__normal_iteratorIPcS4_EEmc", metadata !126, i32 1250, metadata !629, i1 false, i1 false, i32 0, i32 0, null, i32 256, i1 false, null, null, i32 0, metadata !90, i32 1250} ; [ DW_TAG_subprogram ] [line 1250] [insert]
!629 = metadata !{i32 786453, i32 0, metadata !"", i32 0, i32 0, i64 0, i64 0, i64 0, i32 0, null, metadata !630, i32 0, i32 0} ; [ DW_TAG_subroutine_type ] [line 0, size 0, align 0, offset 0] [from ]
!630 = metadata !{null, metadata !435, metadata !501, metadata !422, metadata !161}
!631 = metadata !{i32 786478, i32 0, metadata !305, metadata !"insert", metadata !"insert", metadata !"_ZNSt7__cxx1112basic_stringIcSt11char_traitsIcESaIcEE6insertEmRKS4_", metadata !126, i32 1326, metadata !632, i1 false, i1 false, i32 0, i32 0, null, i32 256, i1 false, null, null, i32 0, metadata !90, i32 1326} ; [ DW_TAG_subprogram ] [line 1326] [insert]
!632 = metadata !{i32 786453, i32 0, metadata !"", i32 0, i32 0, i64 0, i64 0, i64 0, i32 0, null, metadata !633, i32 0, i32 0} ; [ DW_TAG_subroutine_type ] [line 0, size 0, align 0, offset 0] [from ]
!633 = metadata !{metadata !553, metadata !435, metadata !422, metadata !522}
!634 = metadata !{i32 786478, i32 0, metadata !305, metadata !"insert", metadata !"insert", metadata !"_ZNSt7__cxx1112basic_stringIcSt11char_traitsIcESaIcEE6insertEmRKS4_mm", metadata !126, i32 1349, metadata !635, i1 false, i1 false, i32 0, i32 0, null, i32 256, i1 false, null, null, i32 0, metadata !90, i32 1349} ; [ DW_TAG_subprogram ] [line 1349] [insert]
!635 = metadata !{i32 786453, i32 0, metadata !"", i32 0, i32 0, i64 0, i64 0, i64 0, i32 0, null, metadata !636, i32 0, i32 0} ; [ DW_TAG_subroutine_type ] [line 0, size 0, align 0, offset 0] [from ]
!636 = metadata !{metadata !553, metadata !435, metadata !422, metadata !522, metadata !422, metadata !422}
!637 = metadata !{i32 786478, i32 0, metadata !305, metadata !"insert", metadata !"insert", metadata !"_ZNSt7__cxx1112basic_stringIcSt11char_traitsIcESaIcEE6insertEmPKcm", metadata !126, i32 1372, metadata !638, i1 false, i1 false, i32 0, i32 0, null, i32 256, i1 false, null, null, i32 0, metadata !90, i32 1372} ; [ DW_TAG_subprogram ] [line 1372] [insert]
!638 = metadata !{i32 786453, i32 0, metadata !"", i32 0, i32 0, i64 0, i64 0, i64 0, i32 0, null, metadata !639, i32 0, i32 0} ; [ DW_TAG_subroutine_type ] [line 0, size 0, align 0, offset 0] [from ]
!639 = metadata !{metadata !553, metadata !435, metadata !422, metadata !159, metadata !422}
!640 = metadata !{i32 786478, i32 0, metadata !305, metadata !"insert", metadata !"insert", metadata !"_ZNSt7__cxx1112basic_stringIcSt11char_traitsIcESaIcEE6insertEmPKc", metadata !126, i32 1391, metadata !641, i1 false, i1 false, i32 0, i32 0, null, i32 256, i1 false, null, null, i32 0, metadata !90, i32 1391} ; [ DW_TAG_subprogram ] [line 1391] [insert]
!641 = metadata !{i32 786453, i32 0, metadata !"", i32 0, i32 0, i64 0, i64 0, i64 0, i32 0, null, metadata !642, i32 0, i32 0} ; [ DW_TAG_subroutine_type ] [line 0, size 0, align 0, offset 0] [from ]
!642 = metadata !{metadata !553, metadata !435, metadata !422, metadata !159}
!643 = metadata !{i32 786478, i32 0, metadata !305, metadata !"insert", metadata !"insert", metadata !"_ZNSt7__cxx1112basic_stringIcSt11char_traitsIcESaIcEE6insertEmmc", metadata !126, i32 1415, metadata !644, i1 false, i1 false, i32 0, i32 0, null, i32 256, i1 false, null, null, i32 0, metadata !90, i32 1415} ; [ DW_TAG_subprogram ] [line 1415] [insert]
!644 = metadata !{i32 786453, i32 0, metadata !"", i32 0, i32 0, i64 0, i64 0, i64 0, i32 0, null, metadata !645, i32 0, i32 0} ; [ DW_TAG_subroutine_type ] [line 0, size 0, align 0, offset 0] [from ]
!645 = metadata !{metadata !553, metadata !435, metadata !422, metadata !422, metadata !161}
!646 = metadata !{i32 786478, i32 0, metadata !305, metadata !"insert", metadata !"insert", metadata !"_ZNSt7__cxx1112basic_stringIcSt11char_traitsIcESaIcEE6insertEN9__gnu_cxx17__normal_iteratorIPcS4_EEc", metadata !126, i32 1433, metadata !647, i1 false, i1 false, i32 0, i32 0, null, i32 256, i1 false, null, null, i32 0, metadata !90, i32 1433} ; [ DW_TAG_subprogram ] [line 1433] [insert]
!647 = metadata !{i32 786453, i32 0, metadata !"", i32 0, i32 0, i64 0, i64 0, i64 0, i32 0, null, metadata !648, i32 0, i32 0} ; [ DW_TAG_subroutine_type ] [line 0, size 0, align 0, offset 0] [from ]
!648 = metadata !{metadata !501, metadata !435, metadata !649, metadata !161}
!649 = metadata !{i32 786454, metadata !305, metadata !"__const_iterator", metadata !306, i32 99, i64 0, i64 0, i64 0, i32 0, metadata !501} ; [ DW_TAG_typedef ] [__const_iterator] [line 99, size 0, align 0, offset 0] [from iterator]
!650 = metadata !{i32 786478, i32 0, metadata !305, metadata !"erase", metadata !"erase", metadata !"_ZNSt7__cxx1112basic_stringIcSt11char_traitsIcESaIcEE5eraseEmm", metadata !126, i32 1457, metadata !651, i1 false, i1 false, i32 0, i32 0, null, i32 256, i1 false, null, null, i32 0, metadata !90, i32 1457} ; [ DW_TAG_subprogram ] [line 1457] [erase]
!651 = metadata !{i32 786453, i32 0, metadata !"", i32 0, i32 0, i64 0, i64 0, i64 0, i32 0, null, metadata !652, i32 0, i32 0} ; [ DW_TAG_subroutine_type ] [line 0, size 0, align 0, offset 0] [from ]
!652 = metadata !{metadata !553, metadata !435, metadata !422, metadata !422}
!653 = metadata !{i32 786478, i32 0, metadata !305, metadata !"erase", metadata !"erase", metadata !"_ZNSt7__cxx1112basic_stringIcSt11char_traitsIcESaIcEE5eraseEN9__gnu_cxx17__normal_iteratorIPcS4_EE", metadata !126, i32 1473, metadata !654, i1 false, i1 false, i32 0, i32 0, null, i32 256, i1 false, null, null, i32 0, metadata !90, i32 1473} ; [ DW_TAG_subprogram ] [line 1473] [erase]
!654 = metadata !{i32 786453, i32 0, metadata !"", i32 0, i32 0, i64 0, i64 0, i64 0, i32 0, null, metadata !655, i32 0, i32 0} ; [ DW_TAG_subroutine_type ] [line 0, size 0, align 0, offset 0] [from ]
!655 = metadata !{metadata !501, metadata !435, metadata !649}
!656 = metadata !{i32 786478, i32 0, metadata !305, metadata !"erase", metadata !"erase", metadata !"_ZNSt7__cxx1112basic_stringIcSt11char_traitsIcESaIcEE5eraseEN9__gnu_cxx17__normal_iteratorIPcS4_EES8_", metadata !126, i32 1492, metadata !657, i1 false, i1 false, i32 0, i32 0, null, i32 256, i1 false, null, null, i32 0, metadata !90, i32 1492} ; [ DW_TAG_subprogram ] [line 1492] [erase]
!657 = metadata !{i32 786453, i32 0, metadata !"", i32 0, i32 0, i64 0, i64 0, i64 0, i32 0, null, metadata !658, i32 0, i32 0} ; [ DW_TAG_subroutine_type ] [line 0, size 0, align 0, offset 0] [from ]
!658 = metadata !{metadata !501, metadata !435, metadata !649, metadata !649}
!659 = metadata !{i32 786478, i32 0, metadata !305, metadata !"replace", metadata !"replace", metadata !"_ZNSt7__cxx1112basic_stringIcSt11char_traitsIcESaIcEE7replaceEmmRKS4_", metadata !126, i32 1530, metadata !660, i1 false, i1 false, i32 0, i32 0, null, i32 256, i1 false, null, null, i32 0, metadata !90, i32 1530} ; [ DW_TAG_subprogram ] [line 1530] [replace]
!660 = metadata !{i32 786453, i32 0, metadata !"", i32 0, i32 0, i64 0, i64 0, i64 0, i32 0, null, metadata !661, i32 0, i32 0} ; [ DW_TAG_subroutine_type ] [line 0, size 0, align 0, offset 0] [from ]
!661 = metadata !{metadata !553, metadata !435, metadata !422, metadata !422, metadata !522}
!662 = metadata !{i32 786478, i32 0, metadata !305, metadata !"replace", metadata !"replace", metadata !"_ZNSt7__cxx1112basic_stringIcSt11char_traitsIcESaIcEE7replaceEmmRKS4_mm", metadata !126, i32 1552, metadata !663, i1 false, i1 false, i32 0, i32 0, null, i32 256, i1 false, null, null, i32 0, metadata !90, i32 1552} ; [ DW_TAG_subprogram ] [line 1552] [replace]
!663 = metadata !{i32 786453, i32 0, metadata !"", i32 0, i32 0, i64 0, i64 0, i64 0, i32 0, null, metadata !664, i32 0, i32 0} ; [ DW_TAG_subroutine_type ] [line 0, size 0, align 0, offset 0] [from ]
!664 = metadata !{metadata !553, metadata !435, metadata !422, metadata !422, metadata !522, metadata !422, metadata !422}
!665 = metadata !{i32 786478, i32 0, metadata !305, metadata !"replace", metadata !"replace", metadata !"_ZNSt7__cxx1112basic_stringIcSt11char_traitsIcESaIcEE7replaceEmmPKcm", metadata !126, i32 1577, metadata !666, i1 false, i1 false, i32 0, i32 0, null, i32 256, i1 false, null, null, i32 0, metadata !90, i32 1577} ; [ DW_TAG_subprogram ] [line 1577] [replace]
!666 = metadata !{i32 786453, i32 0, metadata !"", i32 0, i32 0, i64 0, i64 0, i64 0, i32 0, null, metadata !667, i32 0, i32 0} ; [ DW_TAG_subroutine_type ] [line 0, size 0, align 0, offset 0] [from ]
!667 = metadata !{metadata !553, metadata !435, metadata !422, metadata !422, metadata !159, metadata !422}
!668 = metadata !{i32 786478, i32 0, metadata !305, metadata !"replace", metadata !"replace", metadata !"_ZNSt7__cxx1112basic_stringIcSt11char_traitsIcESaIcEE7replaceEmmPKc", metadata !126, i32 1602, metadata !669, i1 false, i1 false, i32 0, i32 0, null, i32 256, i1 false, null, null, i32 0, metadata !90, i32 1602} ; [ DW_TAG_subprogram ] [line 1602] [replace]
!669 = metadata !{i32 786453, i32 0, metadata !"", i32 0, i32 0, i64 0, i64 0, i64 0, i32 0, null, metadata !670, i32 0, i32 0} ; [ DW_TAG_subroutine_type ] [line 0, size 0, align 0, offset 0] [from ]
!670 = metadata !{metadata !553, metadata !435, metadata !422, metadata !422, metadata !159}
!671 = metadata !{i32 786478, i32 0, metadata !305, metadata !"replace", metadata !"replace", metadata !"_ZNSt7__cxx1112basic_stringIcSt11char_traitsIcESaIcEE7replaceEmmmc", metadata !126, i32 1626, metadata !672, i1 false, i1 false, i32 0, i32 0, null, i32 256, i1 false, null, null, i32 0, metadata !90, i32 1626} ; [ DW_TAG_subprogram ] [line 1626] [replace]
!672 = metadata !{i32 786453, i32 0, metadata !"", i32 0, i32 0, i64 0, i64 0, i64 0, i32 0, null, metadata !673, i32 0, i32 0} ; [ DW_TAG_subroutine_type ] [line 0, size 0, align 0, offset 0] [from ]
!673 = metadata !{metadata !553, metadata !435, metadata !422, metadata !422, metadata !422, metadata !161}
!674 = metadata !{i32 786478, i32 0, metadata !305, metadata !"replace", metadata !"replace", metadata !"_ZNSt7__cxx1112basic_stringIcSt11char_traitsIcESaIcEE7replaceEN9__gnu_cxx17__normal_iteratorIPcS4_EES8_RKS4_", metadata !126, i32 1644, metadata !675, i1 false, i1 false, i32 0, i32 0, null, i32 256, i1 false, null, null, i32 0, metadata !90, i32 1644} ; [ DW_TAG_subprogram ] [line 1644] [replace]
!675 = metadata !{i32 786453, i32 0, metadata !"", i32 0, i32 0, i64 0, i64 0, i64 0, i32 0, null, metadata !676, i32 0, i32 0} ; [ DW_TAG_subroutine_type ] [line 0, size 0, align 0, offset 0] [from ]
!676 = metadata !{metadata !553, metadata !435, metadata !649, metadata !649, metadata !522}
!677 = metadata !{i32 786478, i32 0, metadata !305, metadata !"replace", metadata !"replace", metadata !"_ZNSt7__cxx1112basic_stringIcSt11char_traitsIcESaIcEE7replaceEN9__gnu_cxx17__normal_iteratorIPcS4_EES8_PKcm", metadata !126, i32 1664, metadata !678, i1 false, i1 false, i32 0, i32 0, null, i32 256, i1 false, null, null, i32 0, metadata !90, i32 1664} ; [ DW_TAG_subprogram ] [line 1664] [replace]
!678 = metadata !{i32 786453, i32 0, metadata !"", i32 0, i32 0, i64 0, i64 0, i64 0, i32 0, null, metadata !679, i32 0, i32 0} ; [ DW_TAG_subroutine_type ] [line 0, size 0, align 0, offset 0] [from ]
!679 = metadata !{metadata !553, metadata !435, metadata !649, metadata !649, metadata !159, metadata !422}
!680 = metadata !{i32 786478, i32 0, metadata !305, metadata !"replace", metadata !"replace", metadata !"_ZNSt7__cxx1112basic_stringIcSt11char_traitsIcESaIcEE7replaceEN9__gnu_cxx17__normal_iteratorIPcS4_EES8_PKc", metadata !126, i32 1686, metadata !681, i1 false, i1 false, i32 0, i32 0, null, i32 256, i1 false, null, null, i32 0, metadata !90, i32 1686} ; [ DW_TAG_subprogram ] [line 1686] [replace]
!681 = metadata !{i32 786453, i32 0, metadata !"", i32 0, i32 0, i64 0, i64 0, i64 0, i32 0, null, metadata !682, i32 0, i32 0} ; [ DW_TAG_subroutine_type ] [line 0, size 0, align 0, offset 0] [from ]
!682 = metadata !{metadata !553, metadata !435, metadata !649, metadata !649, metadata !159}
!683 = metadata !{i32 786478, i32 0, metadata !305, metadata !"replace", metadata !"replace", metadata !"_ZNSt7__cxx1112basic_stringIcSt11char_traitsIcESaIcEE7replaceEN9__gnu_cxx17__normal_iteratorIPcS4_EES8_mc", metadata !126, i32 1707, metadata !684, i1 false, i1 false, i32 0, i32 0, null, i32 256, i1 false, null, null, i32 0, metadata !90, i32 1707} ; [ DW_TAG_subprogram ] [line 1707] [replace]
!684 = metadata !{i32 786453, i32 0, metadata !"", i32 0, i32 0, i64 0, i64 0, i64 0, i32 0, null, metadata !685, i32 0, i32 0} ; [ DW_TAG_subroutine_type ] [line 0, size 0, align 0, offset 0] [from ]
!685 = metadata !{metadata !553, metadata !435, metadata !649, metadata !649, metadata !422, metadata !161}
!686 = metadata !{i32 786478, i32 0, metadata !305, metadata !"replace", metadata !"replace", metadata !"_ZNSt7__cxx1112basic_stringIcSt11char_traitsIcESaIcEE7replaceEN9__gnu_cxx17__normal_iteratorIPcS4_EES8_S7_S7_", metadata !126, i32 1764, metadata !687, i1 false, i1 false, i32 0, i32 0, null, i32 256, i1 false, null, null, i32 0, metadata !90, i32 1764} ; [ DW_TAG_subprogram ] [line 1764] [replace]
!687 = metadata !{i32 786453, i32 0, metadata !"", i32 0, i32 0, i64 0, i64 0, i64 0, i32 0, null, metadata !688, i32 0, i32 0} ; [ DW_TAG_subroutine_type ] [line 0, size 0, align 0, offset 0] [from ]
!688 = metadata !{metadata !553, metadata !435, metadata !649, metadata !649, metadata !220, metadata !220}
!689 = metadata !{i32 786478, i32 0, metadata !305, metadata !"replace", metadata !"replace", metadata !"_ZNSt7__cxx1112basic_stringIcSt11char_traitsIcESaIcEE7replaceEN9__gnu_cxx17__normal_iteratorIPcS4_EES8_PKcSA_", metadata !126, i32 1775, metadata !690, i1 false, i1 false, i32 0, i32 0, null, i32 256, i1 false, null, null, i32 0, metadata !90, i32 1775} ; [ DW_TAG_subprogram ] [line 1775] [replace]
!690 = metadata !{i32 786453, i32 0, metadata !"", i32 0, i32 0, i64 0, i64 0, i64 0, i32 0, null, metadata !691, i32 0, i32 0} ; [ DW_TAG_subroutine_type ] [line 0, size 0, align 0, offset 0] [from ]
!691 = metadata !{metadata !553, metadata !435, metadata !649, metadata !649, metadata !159, metadata !159}
!692 = metadata !{i32 786478, i32 0, metadata !305, metadata !"replace", metadata !"replace", metadata !"_ZNSt7__cxx1112basic_stringIcSt11char_traitsIcESaIcEE7replaceEN9__gnu_cxx17__normal_iteratorIPcS4_EES8_S8_S8_", metadata !126, i32 1786, metadata !693, i1 false, i1 false, i32 0, i32 0, null, i32 256, i1 false, null, null, i32 0, metadata !90, i32 1786} ; [ DW_TAG_subprogram ] [line 1786] [replace]
!693 = metadata !{i32 786453, i32 0, metadata !"", i32 0, i32 0, i64 0, i64 0, i64 0, i32 0, null, metadata !694, i32 0, i32 0} ; [ DW_TAG_subroutine_type ] [line 0, size 0, align 0, offset 0] [from ]
!694 = metadata !{metadata !553, metadata !435, metadata !649, metadata !649, metadata !501, metadata !501}
!695 = metadata !{i32 786478, i32 0, metadata !305, metadata !"replace", metadata !"replace", metadata !"_ZNSt7__cxx1112basic_stringIcSt11char_traitsIcESaIcEE7replaceEN9__gnu_cxx17__normal_iteratorIPcS4_EES8_NS6_IPKcS4_EESB_", metadata !126, i32 1797, metadata !696, i1 false, i1 false, i32 0, i32 0, null, i32 256, i1 false, null, null, i32 0, metadata !90, i32 1797} ; [ DW_TAG_subprogram ] [line 1797] [replace]
!696 = metadata !{i32 786453, i32 0, metadata !"", i32 0, i32 0, i64 0, i64 0, i64 0, i32 0, null, metadata !697, i32 0, i32 0} ; [ DW_TAG_subroutine_type ] [line 0, size 0, align 0, offset 0] [from ]
!697 = metadata !{metadata !553, metadata !435, metadata !649, metadata !649, metadata !508, metadata !508}
!698 = metadata !{i32 786478, i32 0, metadata !305, metadata !"_M_replace_aux", metadata !"_M_replace_aux", metadata !"_ZNSt7__cxx1112basic_stringIcSt11char_traitsIcESaIcEE14_M_replace_auxEmmmc", metadata !126, i32 1841, metadata !672, i1 false, i1 false, i32 0, i32 0, null, i32 257, i1 false, null, null, i32 0, metadata !90, i32 1841} ; [ DW_TAG_subprogram ] [line 1841] [_M_replace_aux]
!699 = metadata !{i32 786478, i32 0, metadata !305, metadata !"_M_replace", metadata !"_M_replace", metadata !"_ZNSt7__cxx1112basic_stringIcSt11char_traitsIcESaIcEE10_M_replaceEmmPKcm", metadata !126, i32 1845, metadata !700, i1 false, i1 false, i32 0, i32 0, null, i32 257, i1 false, null, null, i32 0, metadata !90, i32 1845} ; [ DW_TAG_subprogram ] [line 1845] [_M_replace]
!700 = metadata !{i32 786453, i32 0, metadata !"", i32 0, i32 0, i64 0, i64 0, i64 0, i32 0, null, metadata !701, i32 0, i32 0} ; [ DW_TAG_subroutine_type ] [line 0, size 0, align 0, offset 0] [from ]
!701 = metadata !{metadata !553, metadata !435, metadata !422, metadata !422, metadata !159, metadata !702}
!702 = metadata !{i32 786470, null, metadata !"", null, i32 0, i64 0, i64 0, i64 0, i32 0, metadata !422} ; [ DW_TAG_const_type ] [line 0, size 0, align 0, offset 0] [from size_type]
!703 = metadata !{i32 786478, i32 0, metadata !305, metadata !"_M_append", metadata !"_M_append", metadata !"_ZNSt7__cxx1112basic_stringIcSt11char_traitsIcESaIcEE9_M_appendEPKcm", metadata !126, i32 1849, metadata !614, i1 false, i1 false, i32 0, i32 0, null, i32 257, i1 false, null, null, i32 0, metadata !90, i32 1849} ; [ DW_TAG_subprogram ] [line 1849] [_M_append]
!704 = metadata !{i32 786478, i32 0, metadata !305, metadata !"copy", metadata !"copy", metadata !"_ZNKSt7__cxx1112basic_stringIcSt11char_traitsIcESaIcEE4copyEPcmm", metadata !126, i32 1866, metadata !705, i1 false, i1 false, i32 0, i32 0, null, i32 256, i1 false, null, null, i32 0, metadata !90, i32 1866} ; [ DW_TAG_subprogram ] [line 1866] [copy]
!705 = metadata !{i32 786453, i32 0, metadata !"", i32 0, i32 0, i64 0, i64 0, i64 0, i32 0, null, metadata !706, i32 0, i32 0} ; [ DW_TAG_subroutine_type ] [line 0, size 0, align 0, offset 0] [from ]
!706 = metadata !{metadata !422, metadata !442, metadata !220, metadata !422, metadata !422}
!707 = metadata !{i32 786478, i32 0, metadata !305, metadata !"swap", metadata !"swap", metadata !"_ZNSt7__cxx1112basic_stringIcSt11char_traitsIcESaIcEE4swapERS4_", metadata !126, i32 1876, metadata !708, i1 false, i1 false, i32 0, i32 0, null, i32 256, i1 false, null, null, i32 0, metadata !90, i32 1876} ; [ DW_TAG_subprogram ] [line 1876] [swap]
!708 = metadata !{i32 786453, i32 0, metadata !"", i32 0, i32 0, i64 0, i64 0, i64 0, i32 0, null, metadata !709, i32 0, i32 0} ; [ DW_TAG_subroutine_type ] [line 0, size 0, align 0, offset 0] [from ]
!709 = metadata !{null, metadata !435, metadata !553}
!710 = metadata !{i32 786478, i32 0, metadata !305, metadata !"c_str", metadata !"c_str", metadata !"_ZNKSt7__cxx1112basic_stringIcSt11char_traitsIcESaIcEE5c_strEv", metadata !126, i32 1886, metadata !711, i1 false, i1 false, i32 0, i32 0, null, i32 256, i1 false, null, null, i32 0, metadata !90, i32 1886} ; [ DW_TAG_subprogram ] [line 1886] [c_str]
!711 = metadata !{i32 786453, i32 0, metadata !"", i32 0, i32 0, i64 0, i64 0, i64 0, i32 0, null, metadata !712, i32 0, i32 0} ; [ DW_TAG_subroutine_type ] [line 0, size 0, align 0, offset 0] [from ]
!712 = metadata !{metadata !159, metadata !442}
!713 = metadata !{i32 786478, i32 0, metadata !305, metadata !"data", metadata !"data", metadata !"_ZNKSt7__cxx1112basic_stringIcSt11char_traitsIcESaIcEE4dataEv", metadata !126, i32 1896, metadata !711, i1 false, i1 false, i32 0, i32 0, null, i32 256, i1 false, null, null, i32 0, metadata !90, i32 1896} ; [ DW_TAG_subprogram ] [line 1896] [data]
!714 = metadata !{i32 786478, i32 0, metadata !305, metadata !"get_allocator", metadata !"get_allocator", metadata !"_ZNKSt7__cxx1112basic_stringIcSt11char_traitsIcESaIcEE13get_allocatorEv", metadata !126, i32 1903, metadata !715, i1 false, i1 false, i32 0, i32 0, null, i32 256, i1 false, null, null, i32 0, metadata !90, i32 1903} ; [ DW_TAG_subprogram ] [line 1903] [get_allocator]
!715 = metadata !{i32 786453, i32 0, metadata !"", i32 0, i32 0, i64 0, i64 0, i64 0, i32 0, null, metadata !716, i32 0, i32 0} ; [ DW_TAG_subroutine_type ] [line 0, size 0, align 0, offset 0] [from ]
!716 = metadata !{metadata !312, metadata !442}
!717 = metadata !{i32 786478, i32 0, metadata !305, metadata !"find", metadata !"find", metadata !"_ZNKSt7__cxx1112basic_stringIcSt11char_traitsIcESaIcEE4findEPKcmm", metadata !126, i32 1919, metadata !718, i1 false, i1 false, i32 0, i32 0, null, i32 256, i1 false, null, null, i32 0, metadata !90, i32 1919} ; [ DW_TAG_subprogram ] [line 1919] [find]
!718 = metadata !{i32 786453, i32 0, metadata !"", i32 0, i32 0, i64 0, i64 0, i64 0, i32 0, null, metadata !719, i32 0, i32 0} ; [ DW_TAG_subroutine_type ] [line 0, size 0, align 0, offset 0] [from ]
!719 = metadata !{metadata !422, metadata !442, metadata !159, metadata !422, metadata !422}
!720 = metadata !{i32 786478, i32 0, metadata !305, metadata !"find", metadata !"find", metadata !"_ZNKSt7__cxx1112basic_stringIcSt11char_traitsIcESaIcEE4findERKS4_m", metadata !126, i32 1932, metadata !721, i1 false, i1 false, i32 0, i32 0, null, i32 256, i1 false, null, null, i32 0, metadata !90, i32 1932} ; [ DW_TAG_subprogram ] [line 1932] [find]
!721 = metadata !{i32 786453, i32 0, metadata !"", i32 0, i32 0, i64 0, i64 0, i64 0, i32 0, null, metadata !722, i32 0, i32 0} ; [ DW_TAG_subroutine_type ] [line 0, size 0, align 0, offset 0] [from ]
!722 = metadata !{metadata !422, metadata !442, metadata !522, metadata !422}
!723 = metadata !{i32 786478, i32 0, metadata !305, metadata !"find", metadata !"find", metadata !"_ZNKSt7__cxx1112basic_stringIcSt11char_traitsIcESaIcEE4findEPKcm", metadata !126, i32 1947, metadata !724, i1 false, i1 false, i32 0, i32 0, null, i32 256, i1 false, null, null, i32 0, metadata !90, i32 1947} ; [ DW_TAG_subprogram ] [line 1947] [find]
!724 = metadata !{i32 786453, i32 0, metadata !"", i32 0, i32 0, i64 0, i64 0, i64 0, i32 0, null, metadata !725, i32 0, i32 0} ; [ DW_TAG_subroutine_type ] [line 0, size 0, align 0, offset 0] [from ]
!725 = metadata !{metadata !422, metadata !442, metadata !159, metadata !422}
!726 = metadata !{i32 786478, i32 0, metadata !305, metadata !"find", metadata !"find", metadata !"_ZNKSt7__cxx1112basic_stringIcSt11char_traitsIcESaIcEE4findEcm", metadata !126, i32 1964, metadata !727, i1 false, i1 false, i32 0, i32 0, null, i32 256, i1 false, null, null, i32 0, metadata !90, i32 1964} ; [ DW_TAG_subprogram ] [line 1964] [find]
!727 = metadata !{i32 786453, i32 0, metadata !"", i32 0, i32 0, i64 0, i64 0, i64 0, i32 0, null, metadata !728, i32 0, i32 0} ; [ DW_TAG_subroutine_type ] [line 0, size 0, align 0, offset 0] [from ]
!728 = metadata !{metadata !422, metadata !442, metadata !161, metadata !422}
!729 = metadata !{i32 786478, i32 0, metadata !305, metadata !"rfind", metadata !"rfind", metadata !"_ZNKSt7__cxx1112basic_stringIcSt11char_traitsIcESaIcEE5rfindERKS4_m", metadata !126, i32 1977, metadata !721, i1 false, i1 false, i32 0, i32 0, null, i32 256, i1 false, null, null, i32 0, metadata !90, i32 1977} ; [ DW_TAG_subprogram ] [line 1977] [rfind]
!730 = metadata !{i32 786478, i32 0, metadata !305, metadata !"rfind", metadata !"rfind", metadata !"_ZNKSt7__cxx1112basic_stringIcSt11char_traitsIcESaIcEE5rfindEPKcmm", metadata !126, i32 1994, metadata !718, i1 false, i1 false, i32 0, i32 0, null, i32 256, i1 false, null, null, i32 0, metadata !90, i32 1994} ; [ DW_TAG_subprogram ] [line 1994] [rfind]
!731 = metadata !{i32 786478, i32 0, metadata !305, metadata !"rfind", metadata !"rfind", metadata !"_ZNKSt7__cxx1112basic_stringIcSt11char_traitsIcESaIcEE5rfindEPKcm", metadata !126, i32 2007, metadata !724, i1 false, i1 false, i32 0, i32 0, null, i32 256, i1 false, null, null, i32 0, metadata !90, i32 2007} ; [ DW_TAG_subprogram ] [line 2007] [rfind]
!732 = metadata !{i32 786478, i32 0, metadata !305, metadata !"rfind", metadata !"rfind", metadata !"_ZNKSt7__cxx1112basic_stringIcSt11char_traitsIcESaIcEE5rfindEcm", metadata !126, i32 2024, metadata !727, i1 false, i1 false, i32 0, i32 0, null, i32 256, i1 false, null, null, i32 0, metadata !90, i32 2024} ; [ DW_TAG_subprogram ] [line 2024] [rfind]
!733 = metadata !{i32 786478, i32 0, metadata !305, metadata !"find_first_of", metadata !"find_first_of", metadata !"_ZNKSt7__cxx1112basic_stringIcSt11char_traitsIcESaIcEE13find_first_ofERKS4_m", metadata !126, i32 2038, metadata !721, i1 false, i1 false, i32 0, i32 0, null, i32 256, i1 false, null, null, i32 0, metadata !90, i32 2038} ; [ DW_TAG_subprogram ] [line 2038] [find_first_of]
!734 = metadata !{i32 786478, i32 0, metadata !305, metadata !"find_first_of", metadata !"find_first_of", metadata !"_ZNKSt7__cxx1112basic_stringIcSt11char_traitsIcESaIcEE13find_first_ofEPKcmm", metadata !126, i32 2055, metadata !718, i1 false, i1 false, i32 0, i32 0, null, i32 256, i1 false, null, null, i32 0, metadata !90, i32 2055} ; [ DW_TAG_subprogram ] [line 2055] [find_first_of]
!735 = metadata !{i32 786478, i32 0, metadata !305, metadata !"find_first_of", metadata !"find_first_of", metadata !"_ZNKSt7__cxx1112basic_stringIcSt11char_traitsIcESaIcEE13find_first_ofEPKcm", metadata !126, i32 2068, metadata !724, i1 false, i1 false, i32 0, i32 0, null, i32 256, i1 false, null, null, i32 0, metadata !90, i32 2068} ; [ DW_TAG_subprogram ] [line 2068] [find_first_of]
!736 = metadata !{i32 786478, i32 0, metadata !305, metadata !"find_first_of", metadata !"find_first_of", metadata !"_ZNKSt7__cxx1112basic_stringIcSt11char_traitsIcESaIcEE13find_first_ofEcm", metadata !126, i32 2087, metadata !727, i1 false, i1 false, i32 0, i32 0, null, i32 256, i1 false, null, null, i32 0, metadata !90, i32 2087} ; [ DW_TAG_subprogram ] [line 2087] [find_first_of]
!737 = metadata !{i32 786478, i32 0, metadata !305, metadata !"find_last_of", metadata !"find_last_of", metadata !"_ZNKSt7__cxx1112basic_stringIcSt11char_traitsIcESaIcEE12find_last_ofERKS4_m", metadata !126, i32 2102, metadata !721, i1 false, i1 false, i32 0, i32 0, null, i32 256, i1 false, null, null, i32 0, metadata !90, i32 2102} ; [ DW_TAG_subprogram ] [line 2102] [find_last_of]
!738 = metadata !{i32 786478, i32 0, metadata !305, metadata !"find_last_of", metadata !"find_last_of", metadata !"_ZNKSt7__cxx1112basic_stringIcSt11char_traitsIcESaIcEE12find_last_ofEPKcmm", metadata !126, i32 2119, metadata !718, i1 false, i1 false, i32 0, i32 0, null, i32 256, i1 false, null, null, i32 0, metadata !90, i32 2119} ; [ DW_TAG_subprogram ] [line 2119] [find_last_of]
!739 = metadata !{i32 786478, i32 0, metadata !305, metadata !"find_last_of", metadata !"find_last_of", metadata !"_ZNKSt7__cxx1112basic_stringIcSt11char_traitsIcESaIcEE12find_last_ofEPKcm", metadata !126, i32 2132, metadata !724, i1 false, i1 false, i32 0, i32 0, null, i32 256, i1 false, null, null, i32 0, metadata !90, i32 2132} ; [ DW_TAG_subprogram ] [line 2132] [find_last_of]
!740 = metadata !{i32 786478, i32 0, metadata !305, metadata !"find_last_of", metadata !"find_last_of", metadata !"_ZNKSt7__cxx1112basic_stringIcSt11char_traitsIcESaIcEE12find_last_ofEcm", metadata !126, i32 2151, metadata !727, i1 false, i1 false, i32 0, i32 0, null, i32 256, i1 false, null, null, i32 0, metadata !90, i32 2151} ; [ DW_TAG_subprogram ] [line 2151] [find_last_of]
!741 = metadata !{i32 786478, i32 0, metadata !305, metadata !"find_first_not_of", metadata !"find_first_not_of", metadata !"_ZNKSt7__cxx1112basic_stringIcSt11char_traitsIcESaIcEE17find_first_not_ofERKS4_m", metadata !126, i32 2165, metadata !721, i1 false, i1 false, i32 0, i32 0, null, i32 256, i1 false, null, null, i32 0, metadata !90, i32 2165} ; [ DW_TAG_subprogram ] [line 2165] [find_first_not_of]
!742 = metadata !{i32 786478, i32 0, metadata !305, metadata !"find_first_not_of", metadata !"find_first_not_of", metadata !"_ZNKSt7__cxx1112basic_stringIcSt11char_traitsIcESaIcEE17find_first_not_ofEPKcmm", metadata !126, i32 2182, metadata !718, i1 false, i1 false, i32 0, i32 0, null, i32 256, i1 false, null, null, i32 0, metadata !90, i32 2182} ; [ DW_TAG_subprogram ] [line 2182] [find_first_not_of]
!743 = metadata !{i32 786478, i32 0, metadata !305, metadata !"find_first_not_of", metadata !"find_first_not_of", metadata !"_ZNKSt7__cxx1112basic_stringIcSt11char_traitsIcESaIcEE17find_first_not_ofEPKcm", metadata !126, i32 2196, metadata !724, i1 false, i1 false, i32 0, i32 0, null, i32 256, i1 false, null, null, i32 0, metadata !90, i32 2196} ; [ DW_TAG_subprogram ] [line 2196] [find_first_not_of]
!744 = metadata !{i32 786478, i32 0, metadata !305, metadata !"find_first_not_of", metadata !"find_first_not_of", metadata !"_ZNKSt7__cxx1112basic_stringIcSt11char_traitsIcESaIcEE17find_first_not_ofEcm", metadata !126, i32 2213, metadata !727, i1 false, i1 false, i32 0, i32 0, null, i32 256, i1 false, null, null, i32 0, metadata !90, i32 2213} ; [ DW_TAG_subprogram ] [line 2213] [find_first_not_of]
!745 = metadata !{i32 786478, i32 0, metadata !305, metadata !"find_last_not_of", metadata !"find_last_not_of", metadata !"_ZNKSt7__cxx1112basic_stringIcSt11char_traitsIcESaIcEE16find_last_not_ofERKS4_m", metadata !126, i32 2228, metadata !721, i1 false, i1 false, i32 0, i32 0, null, i32 256, i1 false, null, null, i32 0, metadata !90, i32 2228} ; [ DW_TAG_subprogram ] [line 2228] [find_last_not_of]
!746 = metadata !{i32 786478, i32 0, metadata !305, metadata !"find_last_not_of", metadata !"find_last_not_of", metadata !"_ZNKSt7__cxx1112basic_stringIcSt11char_traitsIcESaIcEE16find_last_not_ofEPKcmm", metadata !126, i32 2245, metadata !718, i1 false, i1 false, i32 0, i32 0, null, i32 256, i1 false, null, null, i32 0, metadata !90, i32 2245} ; [ DW_TAG_subprogram ] [line 2245] [find_last_not_of]
!747 = metadata !{i32 786478, i32 0, metadata !305, metadata !"find_last_not_of", metadata !"find_last_not_of", metadata !"_ZNKSt7__cxx1112basic_stringIcSt11char_traitsIcESaIcEE16find_last_not_ofEPKcm", metadata !126, i32 2259, metadata !724, i1 false, i1 false, i32 0, i32 0, null, i32 256, i1 false, null, null, i32 0, metadata !90, i32 2259} ; [ DW_TAG_subprogram ] [line 2259] [find_last_not_of]
!748 = metadata !{i32 786478, i32 0, metadata !305, metadata !"find_last_not_of", metadata !"find_last_not_of", metadata !"_ZNKSt7__cxx1112basic_stringIcSt11char_traitsIcESaIcEE16find_last_not_ofEcm", metadata !126, i32 2276, metadata !727, i1 false, i1 false, i32 0, i32 0, null, i32 256, i1 false, null, null, i32 0, metadata !90, i32 2276} ; [ DW_TAG_subprogram ] [line 2276] [find_last_not_of]
!749 = metadata !{i32 786478, i32 0, metadata !305, metadata !"substr", metadata !"substr", metadata !"_ZNKSt7__cxx1112basic_stringIcSt11char_traitsIcESaIcEE6substrEmm", metadata !126, i32 2292, metadata !750, i1 false, i1 false, i32 0, i32 0, null, i32 256, i1 false, null, null, i32 0, metadata !90, i32 2292} ; [ DW_TAG_subprogram ] [line 2292] [substr]
!750 = metadata !{i32 786453, i32 0, metadata !"", i32 0, i32 0, i64 0, i64 0, i64 0, i32 0, null, metadata !751, i32 0, i32 0} ; [ DW_TAG_subroutine_type ] [line 0, size 0, align 0, offset 0] [from ]
!751 = metadata !{metadata !305, metadata !442, metadata !422, metadata !422}
!752 = metadata !{i32 786478, i32 0, metadata !305, metadata !"compare", metadata !"compare", metadata !"_ZNKSt7__cxx1112basic_stringIcSt11char_traitsIcESaIcEE7compareERKS4_", metadata !126, i32 2311, metadata !753, i1 false, i1 false, i32 0, i32 0, null, i32 256, i1 false, null, null, i32 0, metadata !90, i32 2311} ; [ DW_TAG_subprogram ] [line 2311] [compare]
!753 = metadata !{i32 786453, i32 0, metadata !"", i32 0, i32 0, i64 0, i64 0, i64 0, i32 0, null, metadata !754, i32 0, i32 0} ; [ DW_TAG_subroutine_type ] [line 0, size 0, align 0, offset 0] [from ]
!754 = metadata !{metadata !62, metadata !442, metadata !522}
!755 = metadata !{i32 786478, i32 0, metadata !305, metadata !"compare", metadata !"compare", metadata !"_ZNKSt7__cxx1112basic_stringIcSt11char_traitsIcESaIcEE7compareEmmRKS4_", metadata !126, i32 2343, metadata !756, i1 false, i1 false, i32 0, i32 0, null, i32 256, i1 false, null, null, i32 0, metadata !90, i32 2343} ; [ DW_TAG_subprogram ] [line 2343] [compare]
!756 = metadata !{i32 786453, i32 0, metadata !"", i32 0, i32 0, i64 0, i64 0, i64 0, i32 0, null, metadata !757, i32 0, i32 0} ; [ DW_TAG_subroutine_type ] [line 0, size 0, align 0, offset 0] [from ]
!757 = metadata !{metadata !62, metadata !442, metadata !422, metadata !422, metadata !522}
!758 = metadata !{i32 786478, i32 0, metadata !305, metadata !"compare", metadata !"compare", metadata !"_ZNKSt7__cxx1112basic_stringIcSt11char_traitsIcESaIcEE7compareEmmRKS4_mm", metadata !126, i32 2369, metadata !759, i1 false, i1 false, i32 0, i32 0, null, i32 256, i1 false, null, null, i32 0, metadata !90, i32 2369} ; [ DW_TAG_subprogram ] [line 2369] [compare]
!759 = metadata !{i32 786453, i32 0, metadata !"", i32 0, i32 0, i64 0, i64 0, i64 0, i32 0, null, metadata !760, i32 0, i32 0} ; [ DW_TAG_subroutine_type ] [line 0, size 0, align 0, offset 0] [from ]
!760 = metadata !{metadata !62, metadata !442, metadata !422, metadata !422, metadata !522, metadata !422, metadata !422}
!761 = metadata !{i32 786478, i32 0, metadata !305, metadata !"compare", metadata !"compare", metadata !"_ZNKSt7__cxx1112basic_stringIcSt11char_traitsIcESaIcEE7compareEPKc", metadata !126, i32 2387, metadata !762, i1 false, i1 false, i32 0, i32 0, null, i32 256, i1 false, null, null, i32 0, metadata !90, i32 2387} ; [ DW_TAG_subprogram ] [line 2387] [compare]
!762 = metadata !{i32 786453, i32 0, metadata !"", i32 0, i32 0, i64 0, i64 0, i64 0, i32 0, null, metadata !763, i32 0, i32 0} ; [ DW_TAG_subroutine_type ] [line 0, size 0, align 0, offset 0] [from ]
!763 = metadata !{metadata !62, metadata !442, metadata !159}
!764 = metadata !{i32 786478, i32 0, metadata !305, metadata !"compare", metadata !"compare", metadata !"_ZNKSt7__cxx1112basic_stringIcSt11char_traitsIcESaIcEE7compareEmmPKc", metadata !126, i32 2411, metadata !765, i1 false, i1 false, i32 0, i32 0, null, i32 256, i1 false, null, null, i32 0, metadata !90, i32 2411} ; [ DW_TAG_subprogram ] [line 2411] [compare]
!765 = metadata !{i32 786453, i32 0, metadata !"", i32 0, i32 0, i64 0, i64 0, i64 0, i32 0, null, metadata !766, i32 0, i32 0} ; [ DW_TAG_subroutine_type ] [line 0, size 0, align 0, offset 0] [from ]
!766 = metadata !{metadata !62, metadata !442, metadata !422, metadata !422, metadata !159}
!767 = metadata !{i32 786478, i32 0, metadata !305, metadata !"compare", metadata !"compare", metadata !"_ZNKSt7__cxx1112basic_stringIcSt11char_traitsIcESaIcEE7compareEmmPKcm", metadata !126, i32 2438, metadata !768, i1 false, i1 false, i32 0, i32 0, null, i32 256, i1 false, null, null, i32 0, metadata !90, i32 2438} ; [ DW_TAG_subprogram ] [line 2438] [compare]
!768 = metadata !{i32 786453, i32 0, metadata !"", i32 0, i32 0, i64 0, i64 0, i64 0, i32 0, null, metadata !769, i32 0, i32 0} ; [ DW_TAG_subroutine_type ] [line 0, size 0, align 0, offset 0] [from ]
!769 = metadata !{metadata !62, metadata !442, metadata !422, metadata !422, metadata !159, metadata !422}
!770 = metadata !{metadata !771, metadata !772, metadata !409}
!771 = metadata !{i32 786479, null, metadata !"_CharT", metadata !161, null, i32 0, i32 0} ; [ DW_TAG_template_type_parameter ]
!772 = metadata !{i32 786479, null, metadata !"_Traits", metadata !773, null, i32 0, i32 0} ; [ DW_TAG_template_type_parameter ]
!773 = metadata !{i32 786451, metadata !774, metadata !"char_traits<char>", metadata !775, i32 232, i64 8, i64 8, i32 0, i32 0, null, metadata !776, i32 0, null, metadata !824} ; [ DW_TAG_structure_type ] [char_traits<char>] [line 232, size 8, align 8, offset 0] [from ]
!774 = metadata !{i32 786489, null, metadata !"std", metadata !775, i32 208} ; [ DW_TAG_namespace ] [/home/mingyuanwu/gklee//usr/lib/gcc/x86_64-linux-gnu/5.4.0/../../../../include/c++/5.4.0/bits/char_traits.h]
!775 = metadata !{i32 786473, metadata !"/usr/lib/gcc/x86_64-linux-gnu/5.4.0/../../../../include/c++/5.4.0/bits/char_traits.h", metadata !"/home/mingyuanwu/gklee", null} ; [ DW_TAG_file_type ]
!776 = metadata !{metadata !777, metadata !784, metadata !787, metadata !788, metadata !792, metadata !795, metadata !798, metadata !802, metadata !803, metadata !806, metadata !812, metadata !815, metadata !818, metadata !821}
!777 = metadata !{i32 786478, i32 0, metadata !773, metadata !"assign", metadata !"assign", metadata !"_ZNSt11char_traitsIcE6assignERcRKc", metadata !775, i32 241, metadata !778, i1 false, i1 false, i32 0, i32 0, null, i32 256, i1 false, null, null, i32 0, metadata !90, i32 241} ; [ DW_TAG_subprogram ] [line 241] [assign]
!778 = metadata !{i32 786453, i32 0, metadata !"", i32 0, i32 0, i64 0, i64 0, i64 0, i32 0, null, metadata !779, i32 0, i32 0} ; [ DW_TAG_subroutine_type ] [line 0, size 0, align 0, offset 0] [from ]
!779 = metadata !{null, metadata !780, metadata !782}
!780 = metadata !{i32 786448, null, null, null, i32 0, i64 0, i64 0, i64 0, i32 0, metadata !781} ; [ DW_TAG_reference_type ] [line 0, size 0, align 0, offset 0] [from char_type]
!781 = metadata !{i32 786454, metadata !773, metadata !"char_type", metadata !775, i32 234, i64 0, i64 0, i64 0, i32 0, metadata !161} ; [ DW_TAG_typedef ] [char_type] [line 234, size 0, align 0, offset 0] [from char]
!782 = metadata !{i32 786448, null, null, null, i32 0, i64 0, i64 0, i64 0, i32 0, metadata !783} ; [ DW_TAG_reference_type ] [line 0, size 0, align 0, offset 0] [from ]
!783 = metadata !{i32 786470, null, metadata !"", null, i32 0, i64 0, i64 0, i64 0, i32 0, metadata !781} ; [ DW_TAG_const_type ] [line 0, size 0, align 0, offset 0] [from char_type]
!784 = metadata !{i32 786478, i32 0, metadata !773, metadata !"eq", metadata !"eq", metadata !"_ZNSt11char_traitsIcE2eqERKcS2_", metadata !775, i32 245, metadata !785, i1 false, i1 false, i32 0, i32 0, null, i32 256, i1 false, null, null, i32 0, metadata !90, i32 245} ; [ DW_TAG_subprogram ] [line 245] [eq]
!785 = metadata !{i32 786453, i32 0, metadata !"", i32 0, i32 0, i64 0, i64 0, i64 0, i32 0, null, metadata !786, i32 0, i32 0} ; [ DW_TAG_subroutine_type ] [line 0, size 0, align 0, offset 0] [from ]
!786 = metadata !{metadata !245, metadata !782, metadata !782}
!787 = metadata !{i32 786478, i32 0, metadata !773, metadata !"lt", metadata !"lt", metadata !"_ZNSt11char_traitsIcE2ltERKcS2_", metadata !775, i32 249, metadata !785, i1 false, i1 false, i32 0, i32 0, null, i32 256, i1 false, null, null, i32 0, metadata !90, i32 249} ; [ DW_TAG_subprogram ] [line 249] [lt]
!788 = metadata !{i32 786478, i32 0, metadata !773, metadata !"compare", metadata !"compare", metadata !"_ZNSt11char_traitsIcE7compareEPKcS2_m", metadata !775, i32 257, metadata !789, i1 false, i1 false, i32 0, i32 0, null, i32 256, i1 false, null, null, i32 0, metadata !90, i32 257} ; [ DW_TAG_subprogram ] [line 257] [compare]
!789 = metadata !{i32 786453, i32 0, metadata !"", i32 0, i32 0, i64 0, i64 0, i64 0, i32 0, null, metadata !790, i32 0, i32 0} ; [ DW_TAG_subroutine_type ] [line 0, size 0, align 0, offset 0] [from ]
!790 = metadata !{metadata !62, metadata !791, metadata !791, metadata !125}
!791 = metadata !{i32 786447, null, metadata !"", null, i32 0, i64 64, i64 64, i64 0, i32 0, metadata !783} ; [ DW_TAG_pointer_type ] [line 0, size 64, align 64, offset 0] [from ]
!792 = metadata !{i32 786478, i32 0, metadata !773, metadata !"length", metadata !"length", metadata !"_ZNSt11char_traitsIcE6lengthEPKc", metadata !775, i32 265, metadata !793, i1 false, i1 false, i32 0, i32 0, null, i32 256, i1 false, null, null, i32 0, metadata !90, i32 265} ; [ DW_TAG_subprogram ] [line 265] [length]
!793 = metadata !{i32 786453, i32 0, metadata !"", i32 0, i32 0, i64 0, i64 0, i64 0, i32 0, null, metadata !794, i32 0, i32 0} ; [ DW_TAG_subroutine_type ] [line 0, size 0, align 0, offset 0] [from ]
!794 = metadata !{metadata !125, metadata !791}
!795 = metadata !{i32 786478, i32 0, metadata !773, metadata !"find", metadata !"find", metadata !"_ZNSt11char_traitsIcE4findEPKcmRS1_", metadata !775, i32 269, metadata !796, i1 false, i1 false, i32 0, i32 0, null, i32 256, i1 false, null, null, i32 0, metadata !90, i32 269} ; [ DW_TAG_subprogram ] [line 269] [find]
!796 = metadata !{i32 786453, i32 0, metadata !"", i32 0, i32 0, i64 0, i64 0, i64 0, i32 0, null, metadata !797, i32 0, i32 0} ; [ DW_TAG_subroutine_type ] [line 0, size 0, align 0, offset 0] [from ]
!797 = metadata !{metadata !791, metadata !791, metadata !125, metadata !782}
!798 = metadata !{i32 786478, i32 0, metadata !773, metadata !"move", metadata !"move", metadata !"_ZNSt11char_traitsIcE4moveEPcPKcm", metadata !775, i32 277, metadata !799, i1 false, i1 false, i32 0, i32 0, null, i32 256, i1 false, null, null, i32 0, metadata !90, i32 277} ; [ DW_TAG_subprogram ] [line 277] [move]
!799 = metadata !{i32 786453, i32 0, metadata !"", i32 0, i32 0, i64 0, i64 0, i64 0, i32 0, null, metadata !800, i32 0, i32 0} ; [ DW_TAG_subroutine_type ] [line 0, size 0, align 0, offset 0] [from ]
!800 = metadata !{metadata !801, metadata !801, metadata !791, metadata !125}
!801 = metadata !{i32 786447, null, metadata !"", null, i32 0, i64 64, i64 64, i64 0, i32 0, metadata !781} ; [ DW_TAG_pointer_type ] [line 0, size 64, align 64, offset 0] [from char_type]
!802 = metadata !{i32 786478, i32 0, metadata !773, metadata !"copy", metadata !"copy", metadata !"_ZNSt11char_traitsIcE4copyEPcPKcm", metadata !775, i32 285, metadata !799, i1 false, i1 false, i32 0, i32 0, null, i32 256, i1 false, null, null, i32 0, metadata !90, i32 285} ; [ DW_TAG_subprogram ] [line 285] [copy]
!803 = metadata !{i32 786478, i32 0, metadata !773, metadata !"assign", metadata !"assign", metadata !"_ZNSt11char_traitsIcE6assignEPcmc", metadata !775, i32 293, metadata !804, i1 false, i1 false, i32 0, i32 0, null, i32 256, i1 false, null, null, i32 0, metadata !90, i32 293} ; [ DW_TAG_subprogram ] [line 293] [assign]
!804 = metadata !{i32 786453, i32 0, metadata !"", i32 0, i32 0, i64 0, i64 0, i64 0, i32 0, null, metadata !805, i32 0, i32 0} ; [ DW_TAG_subroutine_type ] [line 0, size 0, align 0, offset 0] [from ]
!805 = metadata !{metadata !801, metadata !801, metadata !125, metadata !781}
!806 = metadata !{i32 786478, i32 0, metadata !773, metadata !"to_char_type", metadata !"to_char_type", metadata !"_ZNSt11char_traitsIcE12to_char_typeERKi", metadata !775, i32 301, metadata !807, i1 false, i1 false, i32 0, i32 0, null, i32 256, i1 false, null, null, i32 0, metadata !90, i32 301} ; [ DW_TAG_subprogram ] [line 301] [to_char_type]
!807 = metadata !{i32 786453, i32 0, metadata !"", i32 0, i32 0, i64 0, i64 0, i64 0, i32 0, null, metadata !808, i32 0, i32 0} ; [ DW_TAG_subroutine_type ] [line 0, size 0, align 0, offset 0] [from ]
!808 = metadata !{metadata !781, metadata !809}
!809 = metadata !{i32 786448, null, null, null, i32 0, i64 0, i64 0, i64 0, i32 0, metadata !810} ; [ DW_TAG_reference_type ] [line 0, size 0, align 0, offset 0] [from ]
!810 = metadata !{i32 786470, null, metadata !"", null, i32 0, i64 0, i64 0, i64 0, i32 0, metadata !811} ; [ DW_TAG_const_type ] [line 0, size 0, align 0, offset 0] [from int_type]
!811 = metadata !{i32 786454, metadata !773, metadata !"int_type", metadata !775, i32 235, i64 0, i64 0, i64 0, i32 0, metadata !62} ; [ DW_TAG_typedef ] [int_type] [line 235, size 0, align 0, offset 0] [from int]
!812 = metadata !{i32 786478, i32 0, metadata !773, metadata !"to_int_type", metadata !"to_int_type", metadata !"_ZNSt11char_traitsIcE11to_int_typeERKc", metadata !775, i32 307, metadata !813, i1 false, i1 false, i32 0, i32 0, null, i32 256, i1 false, null, null, i32 0, metadata !90, i32 307} ; [ DW_TAG_subprogram ] [line 307] [to_int_type]
!813 = metadata !{i32 786453, i32 0, metadata !"", i32 0, i32 0, i64 0, i64 0, i64 0, i32 0, null, metadata !814, i32 0, i32 0} ; [ DW_TAG_subroutine_type ] [line 0, size 0, align 0, offset 0] [from ]
!814 = metadata !{metadata !811, metadata !782}
!815 = metadata !{i32 786478, i32 0, metadata !773, metadata !"eq_int_type", metadata !"eq_int_type", metadata !"_ZNSt11char_traitsIcE11eq_int_typeERKiS2_", metadata !775, i32 311, metadata !816, i1 false, i1 false, i32 0, i32 0, null, i32 256, i1 false, null, null, i32 0, metadata !90, i32 311} ; [ DW_TAG_subprogram ] [line 311] [eq_int_type]
!816 = metadata !{i32 786453, i32 0, metadata !"", i32 0, i32 0, i64 0, i64 0, i64 0, i32 0, null, metadata !817, i32 0, i32 0} ; [ DW_TAG_subroutine_type ] [line 0, size 0, align 0, offset 0] [from ]
!817 = metadata !{metadata !245, metadata !809, metadata !809}
!818 = metadata !{i32 786478, i32 0, metadata !773, metadata !"eof", metadata !"eof", metadata !"_ZNSt11char_traitsIcE3eofEv", metadata !775, i32 315, metadata !819, i1 false, i1 false, i32 0, i32 0, null, i32 256, i1 false, null, null, i32 0, metadata !90, i32 315} ; [ DW_TAG_subprogram ] [line 315] [eof]
!819 = metadata !{i32 786453, i32 0, metadata !"", i32 0, i32 0, i64 0, i64 0, i64 0, i32 0, null, metadata !820, i32 0, i32 0} ; [ DW_TAG_subroutine_type ] [line 0, size 0, align 0, offset 0] [from ]
!820 = metadata !{metadata !811}
!821 = metadata !{i32 786478, i32 0, metadata !773, metadata !"not_eof", metadata !"not_eof", metadata !"_ZNSt11char_traitsIcE7not_eofERKi", metadata !775, i32 319, metadata !822, i1 false, i1 false, i32 0, i32 0, null, i32 256, i1 false, null, null, i32 0, metadata !90, i32 319} ; [ DW_TAG_subprogram ] [line 319] [not_eof]
!822 = metadata !{i32 786453, i32 0, metadata !"", i32 0, i32 0, i64 0, i64 0, i64 0, i32 0, null, metadata !823, i32 0, i32 0} ; [ DW_TAG_subroutine_type ] [line 0, size 0, align 0, offset 0] [from ]
!823 = metadata !{metadata !811, metadata !809}
!824 = metadata !{metadata !771}
!825 = metadata !{i32 786447, i32 0, metadata !"", i32 0, i32 0, i64 64, i64 64, i64 0, i32 1088, metadata !284} ; [ DW_TAG_pointer_type ] [line 0, size 64, align 64, offset 0] [from ]
!826 = metadata !{i32 786478, i32 0, metadata !100, metadata !"operator==", metadata !"operator==", metadata !"_ZNKSt6localeeqERKS_", metadata !102, i32 254, metadata !827, i1 false, i1 false, i32 0, i32 0, null, i32 256, i1 false, null, null, i32 0, metadata !90, i32 254} ; [ DW_TAG_subprogram ] [line 254] [operator==]
!827 = metadata !{i32 786453, i32 0, metadata !"", i32 0, i32 0, i64 0, i64 0, i64 0, i32 0, null, metadata !828, i32 0, i32 0} ; [ DW_TAG_subroutine_type ] [line 0, size 0, align 0, offset 0] [from ]
!828 = metadata !{metadata !245, metadata !825, metadata !283}
!829 = metadata !{i32 786478, i32 0, metadata !100, metadata !"operator!=", metadata !"operator!=", metadata !"_ZNKSt6localeneERKS_", metadata !102, i32 263, metadata !827, i1 false, i1 false, i32 0, i32 0, null, i32 256, i1 false, null, null, i32 0, metadata !90, i32 263} ; [ DW_TAG_subprogram ] [line 263] [operator!=]
!830 = metadata !{i32 786478, i32 0, metadata !100, metadata !"global", metadata !"global", metadata !"_ZNSt6locale6globalERKS_", metadata !102, i32 298, metadata !831, i1 false, i1 false, i32 0, i32 0, null, i32 256, i1 false, null, null, i32 0, metadata !90, i32 298} ; [ DW_TAG_subprogram ] [line 298] [global]
!831 = metadata !{i32 786453, i32 0, metadata !"", i32 0, i32 0, i64 0, i64 0, i64 0, i32 0, null, metadata !832, i32 0, i32 0} ; [ DW_TAG_subroutine_type ] [line 0, size 0, align 0, offset 0] [from ]
!832 = metadata !{metadata !100, metadata !283}
!833 = metadata !{i32 786478, i32 0, metadata !100, metadata !"classic", metadata !"classic", metadata !"_ZNSt6locale7classicEv", metadata !102, i32 304, metadata !834, i1 false, i1 false, i32 0, i32 0, null, i32 256, i1 false, null, null, i32 0, metadata !90, i32 304} ; [ DW_TAG_subprogram ] [line 304] [classic]
!834 = metadata !{i32 786453, i32 0, metadata !"", i32 0, i32 0, i64 0, i64 0, i64 0, i32 0, null, metadata !835, i32 0, i32 0} ; [ DW_TAG_subroutine_type ] [line 0, size 0, align 0, offset 0] [from ]
!835 = metadata !{metadata !283}
!836 = metadata !{i32 786478, i32 0, metadata !100, metadata !"locale", metadata !"locale", metadata !"", metadata !102, i32 339, metadata !837, i1 false, i1 false, i32 0, i32 0, null, i32 385, i1 false, null, null, i32 0, metadata !90, i32 339} ; [ DW_TAG_subprogram ] [line 339] [locale]
!837 = metadata !{i32 786453, i32 0, metadata !"", i32 0, i32 0, i64 0, i64 0, i64 0, i32 0, null, metadata !838, i32 0, i32 0} ; [ DW_TAG_subroutine_type ] [line 0, size 0, align 0, offset 0] [from ]
!838 = metadata !{null, metadata !279, metadata !105}
!839 = metadata !{i32 786478, i32 0, metadata !100, metadata !"_S_initialize", metadata !"_S_initialize", metadata !"_ZNSt6locale13_S_initializeEv", metadata !102, i32 342, metadata !119, i1 false, i1 false, i32 0, i32 0, null, i32 257, i1 false, null, null, i32 0, metadata !90, i32 342} ; [ DW_TAG_subprogram ] [line 342] [_S_initialize]
!840 = metadata !{i32 786478, i32 0, metadata !100, metadata !"_S_initialize_once", metadata !"_S_initialize_once", metadata !"_ZNSt6locale18_S_initialize_onceEv", metadata !102, i32 345, metadata !119, i1 false, i1 false, i32 0, i32 0, null, i32 257, i1 false, null, null, i32 0, metadata !90, i32 345} ; [ DW_TAG_subprogram ] [line 345] [_S_initialize_once]
!841 = metadata !{i32 786478, i32 0, metadata !100, metadata !"_S_normalize_category", metadata !"_S_normalize_category", metadata !"_ZNSt6locale21_S_normalize_categoryEi", metadata !102, i32 348, metadata !842, i1 false, i1 false, i32 0, i32 0, null, i32 257, i1 false, null, null, i32 0, metadata !90, i32 348} ; [ DW_TAG_subprogram ] [line 348] [_S_normalize_category]
!842 = metadata !{i32 786453, i32 0, metadata !"", i32 0, i32 0, i64 0, i64 0, i64 0, i32 0, null, metadata !843, i32 0, i32 0} ; [ DW_TAG_subroutine_type ] [line 0, size 0, align 0, offset 0] [from ]
!843 = metadata !{metadata !250, metadata !250}
!844 = metadata !{i32 786478, i32 0, metadata !100, metadata !"_M_coalesce", metadata !"_M_coalesce", metadata !"_ZNSt6locale11_M_coalesceERKS_S1_i", metadata !102, i32 351, metadata !292, i1 false, i1 false, i32 0, i32 0, null, i32 257, i1 false, null, null, i32 0, metadata !90, i32 351} ; [ DW_TAG_subprogram ] [line 351] [_M_coalesce]
!845 = metadata !{i32 786474, metadata !100, null, metadata !102, i32 0, i64 0, i64 0, i64 0, i32 0, metadata !106} ; [ DW_TAG_friend ] [line 0, size 0, align 0, offset 0] [from _Impl]
!846 = metadata !{i32 786474, metadata !100, null, metadata !102, i32 0, i64 0, i64 0, i64 0, i32 0, metadata !114} ; [ DW_TAG_friend ] [line 0, size 0, align 0, offset 0] [from facet]
!847 = metadata !{i32 786478, i32 0, metadata !55, metadata !"register_callback", metadata !"register_callback", metadata !"_ZNSt8ios_base17register_callbackEPFvNS_5eventERS_iEi", metadata !5, i32 516, metadata !848, i1 false, i1 false, i32 0, i32 0, null, i32 256, i1 false, null, null, i32 0, metadata !90, i32 516} ; [ DW_TAG_subprogram ] [line 516] [register_callback]
!848 = metadata !{i32 786453, i32 0, metadata !"", i32 0, i32 0, i64 0, i64 0, i64 0, i32 0, null, metadata !849, i32 0, i32 0} ; [ DW_TAG_subroutine_type ] [line 0, size 0, align 0, offset 0] [from ]
!849 = metadata !{null, metadata !850, metadata !851, metadata !62}
!850 = metadata !{i32 786447, i32 0, metadata !"", i32 0, i32 0, i64 64, i64 64, i64 0, i32 1088, metadata !55} ; [ DW_TAG_pointer_type ] [line 0, size 64, align 64, offset 0] [from ios_base]
!851 = metadata !{i32 786454, metadata !55, metadata !"event_callback", metadata !5, i32 503, i64 0, i64 0, i64 0, i32 0, metadata !852} ; [ DW_TAG_typedef ] [event_callback] [line 503, size 0, align 0, offset 0] [from ]
!852 = metadata !{i32 786447, null, metadata !"", null, i32 0, i64 64, i64 64, i64 0, i32 0, metadata !853} ; [ DW_TAG_pointer_type ] [line 0, size 64, align 64, offset 0] [from ]
!853 = metadata !{i32 786453, i32 0, metadata !"", i32 0, i32 0, i64 0, i64 0, i64 0, i32 0, null, metadata !854, i32 0, i32 0} ; [ DW_TAG_subroutine_type ] [line 0, size 0, align 0, offset 0] [from ]
!854 = metadata !{null, metadata !54, metadata !855, metadata !62}
!855 = metadata !{i32 786448, null, null, null, i32 0, i64 0, i64 0, i64 0, i32 0, metadata !55} ; [ DW_TAG_reference_type ] [line 0, size 0, align 0, offset 0] [from ios_base]
!856 = metadata !{i32 786478, i32 0, metadata !55, metadata !"_M_call_callbacks", metadata !"_M_call_callbacks", metadata !"_ZNSt8ios_base17_M_call_callbacksENS_5eventE", metadata !5, i32 560, metadata !857, i1 false, i1 false, i32 0, i32 0, null, i32 258, i1 false, null, null, i32 0, metadata !90, i32 560} ; [ DW_TAG_subprogram ] [line 560] [_M_call_callbacks]
!857 = metadata !{i32 786453, i32 0, metadata !"", i32 0, i32 0, i64 0, i64 0, i64 0, i32 0, null, metadata !858, i32 0, i32 0} ; [ DW_TAG_subroutine_type ] [line 0, size 0, align 0, offset 0] [from ]
!858 = metadata !{null, metadata !850, metadata !54}
!859 = metadata !{i32 786478, i32 0, metadata !55, metadata !"_M_dispose_callbacks", metadata !"_M_dispose_callbacks", metadata !"_ZNSt8ios_base20_M_dispose_callbacksEv", metadata !5, i32 563, metadata !860, i1 false, i1 false, i32 0, i32 0, null, i32 258, i1 false, null, null, i32 0, metadata !90, i32 563} ; [ DW_TAG_subprogram ] [line 563] [_M_dispose_callbacks]
!860 = metadata !{i32 786453, i32 0, metadata !"", i32 0, i32 0, i64 0, i64 0, i64 0, i32 0, null, metadata !861, i32 0, i32 0} ; [ DW_TAG_subroutine_type ] [line 0, size 0, align 0, offset 0] [from ]
!861 = metadata !{null, metadata !850}
!862 = metadata !{i32 786478, i32 0, metadata !55, metadata !"_M_grow_words", metadata !"_M_grow_words", metadata !"_ZNSt8ios_base13_M_grow_wordsEib", metadata !5, i32 586, metadata !863, i1 false, i1 false, i32 0, i32 0, null, i32 258, i1 false, null, null, i32 0, metadata !90, i32 586} ; [ DW_TAG_subprogram ] [line 586] [_M_grow_words]
!863 = metadata !{i32 786453, i32 0, metadata !"", i32 0, i32 0, i64 0, i64 0, i64 0, i32 0, null, metadata !864, i32 0, i32 0} ; [ DW_TAG_subroutine_type ] [line 0, size 0, align 0, offset 0] [from ]
!864 = metadata !{metadata !865, metadata !850, metadata !62, metadata !245}
!865 = metadata !{i32 786448, null, null, null, i32 0, i64 0, i64 0, i64 0, i32 0, metadata !81} ; [ DW_TAG_reference_type ] [line 0, size 0, align 0, offset 0] [from _Words]
!866 = metadata !{i32 786478, i32 0, metadata !55, metadata !"_M_init", metadata !"_M_init", metadata !"_ZNSt8ios_base7_M_initEv", metadata !5, i32 592, metadata !860, i1 false, i1 false, i32 0, i32 0, null, i32 258, i1 false, null, null, i32 0, metadata !90, i32 592} ; [ DW_TAG_subprogram ] [line 592] [_M_init]
!867 = metadata !{i32 786478, i32 0, metadata !55, metadata !"flags", metadata !"flags", metadata !"_ZNKSt8ios_base5flagsEv", metadata !5, i32 618, metadata !868, i1 false, i1 false, i32 0, i32 0, null, i32 256, i1 false, null, null, i32 0, metadata !90, i32 618} ; [ DW_TAG_subprogram ] [line 618] [flags]
!868 = metadata !{i32 786453, i32 0, metadata !"", i32 0, i32 0, i64 0, i64 0, i64 0, i32 0, null, metadata !869, i32 0, i32 0} ; [ DW_TAG_subroutine_type ] [line 0, size 0, align 0, offset 0] [from ]
!869 = metadata !{metadata !73, metadata !870}
!870 = metadata !{i32 786447, i32 0, metadata !"", i32 0, i32 0, i64 64, i64 64, i64 0, i32 1088, metadata !871} ; [ DW_TAG_pointer_type ] [line 0, size 64, align 64, offset 0] [from ]
!871 = metadata !{i32 786470, null, metadata !"", null, i32 0, i64 0, i64 0, i64 0, i32 0, metadata !55} ; [ DW_TAG_const_type ] [line 0, size 0, align 0, offset 0] [from ios_base]
!872 = metadata !{i32 786478, i32 0, metadata !55, metadata !"flags", metadata !"flags", metadata !"_ZNSt8ios_base5flagsESt13_Ios_Fmtflags", metadata !5, i32 629, metadata !873, i1 false, i1 false, i32 0, i32 0, null, i32 256, i1 false, null, null, i32 0, metadata !90, i32 629} ; [ DW_TAG_subprogram ] [line 629] [flags]
!873 = metadata !{i32 786453, i32 0, metadata !"", i32 0, i32 0, i64 0, i64 0, i64 0, i32 0, null, metadata !874, i32 0, i32 0} ; [ DW_TAG_subroutine_type ] [line 0, size 0, align 0, offset 0] [from ]
!874 = metadata !{metadata !73, metadata !850, metadata !73}
!875 = metadata !{i32 786478, i32 0, metadata !55, metadata !"setf", metadata !"setf", metadata !"_ZNSt8ios_base4setfESt13_Ios_Fmtflags", metadata !5, i32 645, metadata !873, i1 false, i1 false, i32 0, i32 0, null, i32 256, i1 false, null, null, i32 0, metadata !90, i32 645} ; [ DW_TAG_subprogram ] [line 645] [setf]
!876 = metadata !{i32 786478, i32 0, metadata !55, metadata !"setf", metadata !"setf", metadata !"_ZNSt8ios_base4setfESt13_Ios_FmtflagsS0_", metadata !5, i32 662, metadata !877, i1 false, i1 false, i32 0, i32 0, null, i32 256, i1 false, null, null, i32 0, metadata !90, i32 662} ; [ DW_TAG_subprogram ] [line 662] [setf]
!877 = metadata !{i32 786453, i32 0, metadata !"", i32 0, i32 0, i64 0, i64 0, i64 0, i32 0, null, metadata !878, i32 0, i32 0} ; [ DW_TAG_subroutine_type ] [line 0, size 0, align 0, offset 0] [from ]
!878 = metadata !{metadata !73, metadata !850, metadata !73, metadata !73}
!879 = metadata !{i32 786478, i32 0, metadata !55, metadata !"unsetf", metadata !"unsetf", metadata !"_ZNSt8ios_base6unsetfESt13_Ios_Fmtflags", metadata !5, i32 677, metadata !880, i1 false, i1 false, i32 0, i32 0, null, i32 256, i1 false, null, null, i32 0, metadata !90, i32 677} ; [ DW_TAG_subprogram ] [line 677] [unsetf]
!880 = metadata !{i32 786453, i32 0, metadata !"", i32 0, i32 0, i64 0, i64 0, i64 0, i32 0, null, metadata !881, i32 0, i32 0} ; [ DW_TAG_subroutine_type ] [line 0, size 0, align 0, offset 0] [from ]
!881 = metadata !{null, metadata !850, metadata !73}
!882 = metadata !{i32 786478, i32 0, metadata !55, metadata !"precision", metadata !"precision", metadata !"_ZNKSt8ios_base9precisionEv", metadata !5, i32 688, metadata !883, i1 false, i1 false, i32 0, i32 0, null, i32 256, i1 false, null, null, i32 0, metadata !90, i32 688} ; [ DW_TAG_subprogram ] [line 688] [precision]
!883 = metadata !{i32 786453, i32 0, metadata !"", i32 0, i32 0, i64 0, i64 0, i64 0, i32 0, null, metadata !884, i32 0, i32 0} ; [ DW_TAG_subroutine_type ] [line 0, size 0, align 0, offset 0] [from ]
!884 = metadata !{metadata !64, metadata !870}
!885 = metadata !{i32 786478, i32 0, metadata !55, metadata !"precision", metadata !"precision", metadata !"_ZNSt8ios_base9precisionEl", metadata !5, i32 697, metadata !886, i1 false, i1 false, i32 0, i32 0, null, i32 256, i1 false, null, null, i32 0, metadata !90, i32 697} ; [ DW_TAG_subprogram ] [line 697] [precision]
!886 = metadata !{i32 786453, i32 0, metadata !"", i32 0, i32 0, i64 0, i64 0, i64 0, i32 0, null, metadata !887, i32 0, i32 0} ; [ DW_TAG_subroutine_type ] [line 0, size 0, align 0, offset 0] [from ]
!887 = metadata !{metadata !64, metadata !850, metadata !64}
!888 = metadata !{i32 786478, i32 0, metadata !55, metadata !"width", metadata !"width", metadata !"_ZNKSt8ios_base5widthEv", metadata !5, i32 711, metadata !883, i1 false, i1 false, i32 0, i32 0, null, i32 256, i1 false, null, null, i32 0, metadata !90, i32 711} ; [ DW_TAG_subprogram ] [line 711] [width]
!889 = metadata !{i32 786478, i32 0, metadata !55, metadata !"width", metadata !"width", metadata !"_ZNSt8ios_base5widthEl", metadata !5, i32 720, metadata !886, i1 false, i1 false, i32 0, i32 0, null, i32 256, i1 false, null, null, i32 0, metadata !90, i32 720} ; [ DW_TAG_subprogram ] [line 720] [width]
!890 = metadata !{i32 786478, i32 0, metadata !55, metadata !"sync_with_stdio", metadata !"sync_with_stdio", metadata !"_ZNSt8ios_base15sync_with_stdioEb", metadata !5, i32 739, metadata !891, i1 false, i1 false, i32 0, i32 0, null, i32 256, i1 false, null, null, i32 0, metadata !90, i32 739} ; [ DW_TAG_subprogram ] [line 739] [sync_with_stdio]
!891 = metadata !{i32 786453, i32 0, metadata !"", i32 0, i32 0, i64 0, i64 0, i64 0, i32 0, null, metadata !892, i32 0, i32 0} ; [ DW_TAG_subroutine_type ] [line 0, size 0, align 0, offset 0] [from ]
!892 = metadata !{metadata !245, metadata !245}
!893 = metadata !{i32 786478, i32 0, metadata !55, metadata !"imbue", metadata !"imbue", metadata !"_ZNSt8ios_base5imbueERKSt6locale", metadata !5, i32 751, metadata !894, i1 false, i1 false, i32 0, i32 0, null, i32 256, i1 false, null, null, i32 0, metadata !90, i32 751} ; [ DW_TAG_subprogram ] [line 751] [imbue]
!894 = metadata !{i32 786453, i32 0, metadata !"", i32 0, i32 0, i64 0, i64 0, i64 0, i32 0, null, metadata !895, i32 0, i32 0} ; [ DW_TAG_subroutine_type ] [line 0, size 0, align 0, offset 0] [from ]
!895 = metadata !{metadata !100, metadata !850, metadata !283}
!896 = metadata !{i32 786478, i32 0, metadata !55, metadata !"getloc", metadata !"getloc", metadata !"_ZNKSt8ios_base6getlocEv", metadata !5, i32 762, metadata !897, i1 false, i1 false, i32 0, i32 0, null, i32 256, i1 false, null, null, i32 0, metadata !90, i32 762} ; [ DW_TAG_subprogram ] [line 762] [getloc]
!897 = metadata !{i32 786453, i32 0, metadata !"", i32 0, i32 0, i64 0, i64 0, i64 0, i32 0, null, metadata !898, i32 0, i32 0} ; [ DW_TAG_subroutine_type ] [line 0, size 0, align 0, offset 0] [from ]
!898 = metadata !{metadata !100, metadata !870}
!899 = metadata !{i32 786478, i32 0, metadata !55, metadata !"_M_getloc", metadata !"_M_getloc", metadata !"_ZNKSt8ios_base9_M_getlocEv", metadata !5, i32 773, metadata !900, i1 false, i1 false, i32 0, i32 0, null, i32 256, i1 false, null, null, i32 0, metadata !90, i32 773} ; [ DW_TAG_subprogram ] [line 773] [_M_getloc]
!900 = metadata !{i32 786453, i32 0, metadata !"", i32 0, i32 0, i64 0, i64 0, i64 0, i32 0, null, metadata !901, i32 0, i32 0} ; [ DW_TAG_subroutine_type ] [line 0, size 0, align 0, offset 0] [from ]
!901 = metadata !{metadata !283, metadata !870}
!902 = metadata !{i32 786478, i32 0, metadata !55, metadata !"xalloc", metadata !"xalloc", metadata !"_ZNSt8ios_base6xallocEv", metadata !5, i32 792, metadata !60, i1 false, i1 false, i32 0, i32 0, null, i32 256, i1 false, null, null, i32 0, metadata !90, i32 792} ; [ DW_TAG_subprogram ] [line 792] [xalloc]
!903 = metadata !{i32 786478, i32 0, metadata !55, metadata !"iword", metadata !"iword", metadata !"_ZNSt8ios_base5iwordEi", metadata !5, i32 808, metadata !904, i1 false, i1 false, i32 0, i32 0, null, i32 256, i1 false, null, null, i32 0, metadata !90, i32 808} ; [ DW_TAG_subprogram ] [line 808] [iword]
!904 = metadata !{i32 786453, i32 0, metadata !"", i32 0, i32 0, i64 0, i64 0, i64 0, i32 0, null, metadata !905, i32 0, i32 0} ; [ DW_TAG_subroutine_type ] [line 0, size 0, align 0, offset 0] [from ]
!905 = metadata !{metadata !906, metadata !850, metadata !62}
!906 = metadata !{i32 786448, null, null, null, i32 0, i64 0, i64 0, i64 0, i32 0, metadata !70} ; [ DW_TAG_reference_type ] [line 0, size 0, align 0, offset 0] [from long int]
!907 = metadata !{i32 786478, i32 0, metadata !55, metadata !"pword", metadata !"pword", metadata !"_ZNSt8ios_base5pwordEi", metadata !5, i32 829, metadata !908, i1 false, i1 false, i32 0, i32 0, null, i32 256, i1 false, null, null, i32 0, metadata !90, i32 829} ; [ DW_TAG_subprogram ] [line 829] [pword]
!908 = metadata !{i32 786453, i32 0, metadata !"", i32 0, i32 0, i64 0, i64 0, i64 0, i32 0, null, metadata !909, i32 0, i32 0} ; [ DW_TAG_subroutine_type ] [line 0, size 0, align 0, offset 0] [from ]
!909 = metadata !{metadata !910, metadata !850, metadata !62}
!910 = metadata !{i32 786448, null, null, null, i32 0, i64 0, i64 0, i64 0, i32 0, metadata !84} ; [ DW_TAG_reference_type ] [line 0, size 0, align 0, offset 0] [from ]
!911 = metadata !{i32 786478, i32 0, metadata !55, metadata !"~ios_base", metadata !"~ios_base", metadata !"", metadata !5, i32 845, metadata !860, i1 false, i1 false, i32 1, i32 0, metadata !55, i32 256, i1 false, null, null, i32 0, metadata !90, i32 845} ; [ DW_TAG_subprogram ] [line 845] [~ios_base]
!912 = metadata !{i32 786478, i32 0, metadata !55, metadata !"ios_base", metadata !"ios_base", metadata !"", metadata !5, i32 848, metadata !860, i1 false, i1 false, i32 0, i32 0, null, i32 258, i1 false, null, null, i32 0, metadata !90, i32 848} ; [ DW_TAG_subprogram ] [line 848] [ios_base]
!913 = metadata !{i32 786478, i32 0, metadata !55, metadata !"ios_base", metadata !"ios_base", metadata !"", metadata !5, i32 854, metadata !914, i1 false, i1 false, i32 0, i32 0, null, i32 257, i1 false, null, null, i32 0, metadata !90, i32 854} ; [ DW_TAG_subprogram ] [line 854] [ios_base]
!914 = metadata !{i32 786453, i32 0, metadata !"", i32 0, i32 0, i64 0, i64 0, i64 0, i32 0, null, metadata !915, i32 0, i32 0} ; [ DW_TAG_subroutine_type ] [line 0, size 0, align 0, offset 0] [from ]
!915 = metadata !{null, metadata !850, metadata !916}
!916 = metadata !{i32 786448, null, null, null, i32 0, i64 0, i64 0, i64 0, i32 0, metadata !871} ; [ DW_TAG_reference_type ] [line 0, size 0, align 0, offset 0] [from ]
!917 = metadata !{i32 786478, i32 0, metadata !55, metadata !"operator=", metadata !"operator=", metadata !"_ZNSt8ios_baseaSERKS_", metadata !5, i32 857, metadata !918, i1 false, i1 false, i32 0, i32 0, null, i32 257, i1 false, null, null, i32 0, metadata !90, i32 857} ; [ DW_TAG_subprogram ] [line 857] [operator=]
!918 = metadata !{i32 786453, i32 0, metadata !"", i32 0, i32 0, i64 0, i64 0, i64 0, i32 0, null, metadata !919, i32 0, i32 0} ; [ DW_TAG_subroutine_type ] [line 0, size 0, align 0, offset 0] [from ]
!919 = metadata !{metadata !855, metadata !850, metadata !916}
!920 = metadata !{metadata !921, metadata !922, metadata !923}
!921 = metadata !{i32 786472, metadata !"erase_event", i64 0} ; [ DW_TAG_enumerator ] [erase_event :: 0]
!922 = metadata !{i32 786472, metadata !"imbue_event", i64 1} ; [ DW_TAG_enumerator ] [imbue_event :: 1]
!923 = metadata !{i32 786472, metadata !"copyfmt_event", i64 2} ; [ DW_TAG_enumerator ] [copyfmt_event :: 2]
!924 = metadata !{i32 786436, null, metadata !"cudaMemcpyKind", metadata !925, i32 705, i64 32, i64 32, i32 0, i32 0, null, metadata !926, i32 0, i32 0} ; [ DW_TAG_enumeration_type ] [cudaMemcpyKind] [line 705, size 32, align 32, offset 0] [from ]
!925 = metadata !{i32 786473, metadata !"/home/mingyuanwu/gklee/Gklee/Gklee/include/cuda/driver_types.h", metadata !"/home/mingyuanwu/gklee", null} ; [ DW_TAG_file_type ]
!926 = metadata !{metadata !927, metadata !928, metadata !929, metadata !930, metadata !931}
!927 = metadata !{i32 786472, metadata !"cudaMemcpyHostToHost", i64 0} ; [ DW_TAG_enumerator ] [cudaMemcpyHostToHost :: 0]
!928 = metadata !{i32 786472, metadata !"cudaMemcpyHostToDevice", i64 1} ; [ DW_TAG_enumerator ] [cudaMemcpyHostToDevice :: 1]
!929 = metadata !{i32 786472, metadata !"cudaMemcpyDeviceToHost", i64 2} ; [ DW_TAG_enumerator ] [cudaMemcpyDeviceToHost :: 2]
!930 = metadata !{i32 786472, metadata !"cudaMemcpyDeviceToDevice", i64 3} ; [ DW_TAG_enumerator ] [cudaMemcpyDeviceToDevice :: 3]
!931 = metadata !{i32 786472, metadata !"cudaMemcpyDefault", i64 4} ; [ DW_TAG_enumerator ] [cudaMemcpyDefault :: 4]
!932 = metadata !{metadata !410}
!933 = metadata !{metadata !934}
!934 = metadata !{metadata !935, metadata !937, metadata !942, metadata !943, metadata !984, metadata !985}
!935 = metadata !{i32 786478, i32 0, metadata !936, metadata !"__cxx_global_var_init", metadata !"__cxx_global_var_init", metadata !"", metadata !936, i32 73, metadata !119, i1 true, i1 true, i32 0, i32 0, null, i32 256, i1 false, void ()* @__cxx_global_var_init, null, null, metadata !932, i32 73} ; [ DW_TAG_subprogram ] [line 73] [local] [def] [__cxx_global_var_init]
!936 = metadata !{i32 786473, metadata !"/usr/lib/gcc/x86_64-linux-gnu/5.4.0/../../../../include/c++/5.4.0/iostream", metadata !"/home/mingyuanwu/gklee", null} ; [ DW_TAG_file_type ]
!937 = metadata !{i32 786478, i32 0, metadata !938, metadata !"colonel", metadata !"colonel", metadata !"_Z7colonelPi", metadata !938, i32 10, metadata !939, i1 false, i1 true, i32 0, i32 0, null, i32 256, i1 false, void (i32*)* @_Z7colonelPi, null, null, metadata !932, i32 11} ; [ DW_TAG_subprogram ] [line 10] [def] [scope 11] [colonel]
!938 = metadata !{i32 786473, metadata !"conel.cpp", metadata !"/home/mingyuanwu/gklee", null} ; [ DW_TAG_file_type ]
!939 = metadata !{i32 786453, i32 0, metadata !"", i32 0, i32 0, i64 0, i64 0, i64 0, i32 0, null, metadata !940, i32 0, i32 0} ; [ DW_TAG_subroutine_type ] [line 0, size 0, align 0, offset 0] [from ]
!940 = metadata !{null, metadata !941}
!941 = metadata !{i32 786447, null, metadata !"", null, i32 0, i64 64, i64 64, i64 0, i32 0, metadata !62} ; [ DW_TAG_pointer_type ] [line 0, size 64, align 64, offset 0] [from int]
!942 = metadata !{i32 786478, i32 0, metadata !938, metadata !"main", metadata !"main", metadata !"", metadata !938, i32 16, metadata !60, i1 false, i1 true, i32 0, i32 0, null, i32 256, i1 false, i32 ()* @main, null, null, metadata !932, i32 17} ; [ DW_TAG_subprogram ] [line 16] [def] [scope 17] [main]
!943 = metadata !{i32 786478, i32 0, null, metadata !"dim3", metadata !"dim3", metadata !"_ZN4dim3C1Ejjj", metadata !944, i32 419, metadata !945, i1 false, i1 true, i32 0, i32 0, null, i32 256, i1 false, void (%struct.dim3*, i32, i32, i32)* @_ZN4dim3C1Ejjj, null, metadata !954, metadata !932, i32 419} ; [ DW_TAG_subprogram ] [line 419] [def] [dim3]
!944 = metadata !{i32 786473, metadata !"/home/mingyuanwu/gklee/Gklee/Gklee/include/cuda/vector_types.h", metadata !"/home/mingyuanwu/gklee", null} ; [ DW_TAG_file_type ]
!945 = metadata !{i32 786453, i32 0, metadata !"", i32 0, i32 0, i64 0, i64 0, i64 0, i32 0, null, metadata !946, i32 0, i32 0} ; [ DW_TAG_subroutine_type ] [line 0, size 0, align 0, offset 0] [from ]
!946 = metadata !{null, metadata !947, metadata !951, metadata !951, metadata !951}
!947 = metadata !{i32 786447, i32 0, metadata !"", i32 0, i32 0, i64 64, i64 64, i64 0, i32 1088, metadata !948} ; [ DW_TAG_pointer_type ] [line 0, size 64, align 64, offset 0] [from dim3]
!948 = metadata !{i32 786451, null, metadata !"dim3", metadata !944, i32 415, i64 96, i64 32, i32 0, i32 0, null, metadata !949, i32 0, null, null} ; [ DW_TAG_structure_type ] [dim3] [line 415, size 96, align 32, offset 0] [from ]
!949 = metadata !{metadata !950, metadata !952, metadata !953, metadata !954, metadata !955, metadata !973, metadata !976, metadata !981}
!950 = metadata !{i32 786445, metadata !948, metadata !"x", metadata !944, i32 417, i64 32, i64 32, i64 0, i32 0, metadata !951} ; [ DW_TAG_member ] [x] [line 417, size 32, align 32, offset 0] [from unsigned int]
!951 = metadata !{i32 786468, null, metadata !"unsigned int", null, i32 0, i64 32, i64 32, i64 0, i32 0, i32 7} ; [ DW_TAG_base_type ] [unsigned int] [line 0, size 32, align 32, offset 0, enc DW_ATE_unsigned]
!952 = metadata !{i32 786445, metadata !948, metadata !"y", metadata !944, i32 417, i64 32, i64 32, i64 32, i32 0, metadata !951} ; [ DW_TAG_member ] [y] [line 417, size 32, align 32, offset 32] [from unsigned int]
!953 = metadata !{i32 786445, metadata !948, metadata !"z", metadata !944, i32 417, i64 32, i64 32, i64 64, i32 0, metadata !951} ; [ DW_TAG_member ] [z] [line 417, size 32, align 32, offset 64] [from unsigned int]
!954 = metadata !{i32 786478, i32 0, metadata !948, metadata !"dim3", metadata !"dim3", metadata !"", metadata !944, i32 419, metadata !945, i1 false, i1 false, i32 0, i32 0, null, i32 256, i1 false, null, null, i32 0, metadata !90, i32 419} ; [ DW_TAG_subprogram ] [line 419] [dim3]
!955 = metadata !{i32 786478, i32 0, metadata !948, metadata !"dim3", metadata !"dim3", metadata !"", metadata !944, i32 420, metadata !956, i1 false, i1 false, i32 0, i32 0, null, i32 256, i1 false, null, null, i32 0, metadata !90, i32 420} ; [ DW_TAG_subprogram ] [line 420] [dim3]
!956 = metadata !{i32 786453, i32 0, metadata !"", i32 0, i32 0, i64 0, i64 0, i64 0, i32 0, null, metadata !957, i32 0, i32 0} ; [ DW_TAG_subroutine_type ] [line 0, size 0, align 0, offset 0] [from ]
!957 = metadata !{null, metadata !947, metadata !958}
!958 = metadata !{i32 786454, null, metadata !"uint3", metadata !944, i32 381, i64 0, i64 0, i64 0, i32 0, metadata !959} ; [ DW_TAG_typedef ] [uint3] [line 381, size 0, align 0, offset 0] [from uint3]
!959 = metadata !{i32 786451, null, metadata !"uint3", metadata !944, i32 188, i64 96, i64 32, i32 0, i32 0, null, metadata !960, i32 0, null, null} ; [ DW_TAG_structure_type ] [uint3] [line 188, size 96, align 32, offset 0] [from ]
!960 = metadata !{metadata !961, metadata !962, metadata !963, metadata !964, metadata !968}
!961 = metadata !{i32 786445, metadata !959, metadata !"x", metadata !944, i32 190, i64 32, i64 32, i64 0, i32 0, metadata !951} ; [ DW_TAG_member ] [x] [line 190, size 32, align 32, offset 0] [from unsigned int]
!962 = metadata !{i32 786445, metadata !959, metadata !"y", metadata !944, i32 190, i64 32, i64 32, i64 32, i32 0, metadata !951} ; [ DW_TAG_member ] [y] [line 190, size 32, align 32, offset 32] [from unsigned int]
!963 = metadata !{i32 786445, metadata !959, metadata !"z", metadata !944, i32 190, i64 32, i64 32, i64 64, i32 0, metadata !951} ; [ DW_TAG_member ] [z] [line 190, size 32, align 32, offset 64] [from unsigned int]
!964 = metadata !{i32 786478, i32 0, metadata !959, metadata !"uint3", metadata !"uint3", metadata !"", metadata !944, i32 188, metadata !965, i1 false, i1 false, i32 0, i32 0, null, i32 320, i1 false, null, null, i32 0, metadata !90, i32 188} ; [ DW_TAG_subprogram ] [line 188] [uint3]
!965 = metadata !{i32 786453, i32 0, metadata !"", i32 0, i32 0, i64 0, i64 0, i64 0, i32 0, null, metadata !966, i32 0, i32 0} ; [ DW_TAG_subroutine_type ] [line 0, size 0, align 0, offset 0] [from ]
!966 = metadata !{null, metadata !967}
!967 = metadata !{i32 786447, i32 0, metadata !"", i32 0, i32 0, i64 64, i64 64, i64 0, i32 1088, metadata !959} ; [ DW_TAG_pointer_type ] [line 0, size 64, align 64, offset 0] [from uint3]
!968 = metadata !{i32 786478, i32 0, metadata !959, metadata !"uint3", metadata !"uint3", metadata !"", metadata !944, i32 188, metadata !969, i1 false, i1 false, i32 0, i32 0, null, i32 320, i1 false, null, null, i32 0, metadata !90, i32 188} ; [ DW_TAG_subprogram ] [line 188] [uint3]
!969 = metadata !{i32 786453, i32 0, metadata !"", i32 0, i32 0, i64 0, i64 0, i64 0, i32 0, null, metadata !970, i32 0, i32 0} ; [ DW_TAG_subroutine_type ] [line 0, size 0, align 0, offset 0] [from ]
!970 = metadata !{null, metadata !967, metadata !971}
!971 = metadata !{i32 786448, null, null, null, i32 0, i64 0, i64 0, i64 0, i32 0, metadata !972} ; [ DW_TAG_reference_type ] [line 0, size 0, align 0, offset 0] [from ]
!972 = metadata !{i32 786470, null, metadata !"", null, i32 0, i64 0, i64 0, i64 0, i32 0, metadata !959} ; [ DW_TAG_const_type ] [line 0, size 0, align 0, offset 0] [from uint3]
!973 = metadata !{i32 786478, i32 0, metadata !948, metadata !"operator uint3", metadata !"operator uint3", metadata !"_ZN4dim3cv5uint3Ev", metadata !944, i32 421, metadata !974, i1 false, i1 false, i32 0, i32 0, null, i32 256, i1 false, null, null, i32 0, metadata !90, i32 421} ; [ DW_TAG_subprogram ] [line 421] [operator uint3]
!974 = metadata !{i32 786453, i32 0, metadata !"", i32 0, i32 0, i64 0, i64 0, i64 0, i32 0, null, metadata !975, i32 0, i32 0} ; [ DW_TAG_subroutine_type ] [line 0, size 0, align 0, offset 0] [from ]
!975 = metadata !{metadata !958, metadata !947}
!976 = metadata !{i32 786478, i32 0, metadata !948, metadata !"dim3", metadata !"dim3", metadata !"", metadata !944, i32 415, metadata !977, i1 false, i1 false, i32 0, i32 0, null, i32 320, i1 false, null, null, i32 0, metadata !90, i32 415} ; [ DW_TAG_subprogram ] [line 415] [dim3]
!977 = metadata !{i32 786453, i32 0, metadata !"", i32 0, i32 0, i64 0, i64 0, i64 0, i32 0, null, metadata !978, i32 0, i32 0} ; [ DW_TAG_subroutine_type ] [line 0, size 0, align 0, offset 0] [from ]
!978 = metadata !{null, metadata !947, metadata !979}
!979 = metadata !{i32 786448, null, null, null, i32 0, i64 0, i64 0, i64 0, i32 0, metadata !980} ; [ DW_TAG_reference_type ] [line 0, size 0, align 0, offset 0] [from ]
!980 = metadata !{i32 786470, null, metadata !"", null, i32 0, i64 0, i64 0, i64 0, i32 0, metadata !948} ; [ DW_TAG_const_type ] [line 0, size 0, align 0, offset 0] [from dim3]
!981 = metadata !{i32 786478, i32 0, metadata !948, metadata !"~dim3", metadata !"~dim3", metadata !"", metadata !944, i32 415, metadata !982, i1 false, i1 false, i32 0, i32 0, null, i32 320, i1 false, null, null, i32 0, metadata !90, i32 415} ; [ DW_TAG_subprogram ] [line 415] [~dim3]
!982 = metadata !{i32 786453, i32 0, metadata !"", i32 0, i32 0, i64 0, i64 0, i64 0, i32 0, null, metadata !983, i32 0, i32 0} ; [ DW_TAG_subroutine_type ] [line 0, size 0, align 0, offset 0] [from ]
!983 = metadata !{null, metadata !947}
!984 = metadata !{i32 786478, i32 0, null, metadata !"dim3", metadata !"dim3", metadata !"_ZN4dim3C2Ejjj", metadata !944, i32 419, metadata !945, i1 false, i1 true, i32 0, i32 0, null, i32 256, i1 false, void (%struct.dim3*, i32, i32, i32)* @_ZN4dim3C2Ejjj, null, metadata !954, metadata !932, i32 419} ; [ DW_TAG_subprogram ] [line 419] [def] [dim3]
!985 = metadata !{i32 786478, i32 0, metadata !938, metadata !"_GLOBAL__I_a", metadata !"_GLOBAL__I_a", metadata !"", metadata !938, i32 419, metadata !986, i1 true, i1 true, i32 0, i32 0, null, i32 64, i1 false, void ()* @_GLOBAL__I_a, null, null, metadata !932, i32 419} ; [ DW_TAG_subprogram ] [line 419] [local] [def] [_GLOBAL__I_a]
!986 = metadata !{i32 786453, i32 0, metadata !"", i32 0, i32 0, i64 0, i64 0, i64 0, i32 0, null, metadata !410, i32 0, i32 0} ; [ DW_TAG_subroutine_type ] [line 0, size 0, align 0, offset 0] [from ]
!987 = metadata !{metadata !988}
!988 = metadata !{metadata !989, metadata !991, metadata !992, metadata !993, metadata !994, metadata !995, metadata !996, metadata !997, metadata !998, metadata !999, metadata !1000, metadata !1001, metadata !1002, metadata !1003, metadata !1004, metadata !1005, metadata !1006, metadata !1007, metadata !1008, metadata !1010, metadata !1011, metadata !1012, metadata !1013, metadata !1016, metadata !1017, metadata !1018, metadata !1019, metadata !1020, metadata !1021, metadata !1024, metadata !1025, metadata !1026, metadata !1028, metadata !1029, metadata !1030, metadata !1031, metadata !1032, metadata !1033, metadata !1034, metadata !1035, metadata !1036}
!989 = metadata !{i32 786484, i32 0, metadata !55, metadata !"boolalpha", metadata !"boolalpha", metadata !"boolalpha", metadata !5, i32 325, metadata !990, i32 1, i32 1, i32 1} ; [ DW_TAG_variable ] [boolalpha] [line 325] [local] [def]
!990 = metadata !{i32 786470, null, metadata !"", null, i32 0, i64 0, i64 0, i64 0, i32 0, metadata !73} ; [ DW_TAG_const_type ] [line 0, size 0, align 0, offset 0] [from fmtflags]
!991 = metadata !{i32 786484, i32 0, metadata !55, metadata !"dec", metadata !"dec", metadata !"dec", metadata !5, i32 328, metadata !990, i32 1, i32 1, i32 2} ; [ DW_TAG_variable ] [dec] [line 328] [local] [def]
!992 = metadata !{i32 786484, i32 0, metadata !55, metadata !"fixed", metadata !"fixed", metadata !"fixed", metadata !5, i32 331, metadata !990, i32 1, i32 1, i32 4} ; [ DW_TAG_variable ] [fixed] [line 331] [local] [def]
!993 = metadata !{i32 786484, i32 0, metadata !55, metadata !"hex", metadata !"hex", metadata !"hex", metadata !5, i32 334, metadata !990, i32 1, i32 1, i32 8} ; [ DW_TAG_variable ] [hex] [line 334] [local] [def]
!994 = metadata !{i32 786484, i32 0, metadata !55, metadata !"internal", metadata !"internal", metadata !"internal", metadata !5, i32 339, metadata !990, i32 1, i32 1, i32 16} ; [ DW_TAG_variable ] [internal] [line 339] [local] [def]
!995 = metadata !{i32 786484, i32 0, metadata !55, metadata !"left", metadata !"left", metadata !"left", metadata !5, i32 343, metadata !990, i32 1, i32 1, i32 32} ; [ DW_TAG_variable ] [left] [line 343] [local] [def]
!996 = metadata !{i32 786484, i32 0, metadata !55, metadata !"oct", metadata !"oct", metadata !"oct", metadata !5, i32 346, metadata !990, i32 1, i32 1, i32 64} ; [ DW_TAG_variable ] [oct] [line 346] [local] [def]
!997 = metadata !{i32 786484, i32 0, metadata !55, metadata !"right", metadata !"right", metadata !"right", metadata !5, i32 350, metadata !990, i32 1, i32 1, i32 128} ; [ DW_TAG_variable ] [right] [line 350] [local] [def]
!998 = metadata !{i32 786484, i32 0, metadata !55, metadata !"scientific", metadata !"scientific", metadata !"scientific", metadata !5, i32 353, metadata !990, i32 1, i32 1, i32 256} ; [ DW_TAG_variable ] [scientific] [line 353] [local] [def]
!999 = metadata !{i32 786484, i32 0, metadata !55, metadata !"showbase", metadata !"showbase", metadata !"showbase", metadata !5, i32 357, metadata !990, i32 1, i32 1, i32 512} ; [ DW_TAG_variable ] [showbase] [line 357] [local] [def]
!1000 = metadata !{i32 786484, i32 0, metadata !55, metadata !"showpoint", metadata !"showpoint", metadata !"showpoint", metadata !5, i32 361, metadata !990, i32 1, i32 1, i32 1024} ; [ DW_TAG_variable ] [showpoint] [line 361] [local] [def]
!1001 = metadata !{i32 786484, i32 0, metadata !55, metadata !"showpos", metadata !"showpos", metadata !"showpos", metadata !5, i32 364, metadata !990, i32 1, i32 1, i32 2048} ; [ DW_TAG_variable ] [showpos] [line 364] [local] [def]
!1002 = metadata !{i32 786484, i32 0, metadata !55, metadata !"skipws", metadata !"skipws", metadata !"skipws", metadata !5, i32 367, metadata !990, i32 1, i32 1, i32 4096} ; [ DW_TAG_variable ] [skipws] [line 367] [local] [def]
!1003 = metadata !{i32 786484, i32 0, metadata !55, metadata !"unitbuf", metadata !"unitbuf", metadata !"unitbuf", metadata !5, i32 370, metadata !990, i32 1, i32 1, i32 8192} ; [ DW_TAG_variable ] [unitbuf] [line 370] [local] [def]
!1004 = metadata !{i32 786484, i32 0, metadata !55, metadata !"uppercase", metadata !"uppercase", metadata !"uppercase", metadata !5, i32 374, metadata !990, i32 1, i32 1, i32 16384} ; [ DW_TAG_variable ] [uppercase] [line 374] [local] [def]
!1005 = metadata !{i32 786484, i32 0, metadata !55, metadata !"adjustfield", metadata !"adjustfield", metadata !"adjustfield", metadata !5, i32 377, metadata !990, i32 1, i32 1, i32 176} ; [ DW_TAG_variable ] [adjustfield] [line 377] [local] [def]
!1006 = metadata !{i32 786484, i32 0, metadata !55, metadata !"basefield", metadata !"basefield", metadata !"basefield", metadata !5, i32 380, metadata !990, i32 1, i32 1, i32 74} ; [ DW_TAG_variable ] [basefield] [line 380] [local] [def]
!1007 = metadata !{i32 786484, i32 0, metadata !55, metadata !"floatfield", metadata !"floatfield", metadata !"floatfield", metadata !5, i32 383, metadata !990, i32 1, i32 1, i32 260} ; [ DW_TAG_variable ] [floatfield] [line 383] [local] [def]
!1008 = metadata !{i32 786484, i32 0, metadata !55, metadata !"badbit", metadata !"badbit", metadata !"badbit", metadata !5, i32 401, metadata !1009, i32 1, i32 1, i32 1} ; [ DW_TAG_variable ] [badbit] [line 401] [local] [def]
!1009 = metadata !{i32 786470, null, metadata !"", null, i32 0, i64 0, i64 0, i64 0, i32 0, metadata !75} ; [ DW_TAG_const_type ] [line 0, size 0, align 0, offset 0] [from iostate]
!1010 = metadata !{i32 786484, i32 0, metadata !55, metadata !"eofbit", metadata !"eofbit", metadata !"eofbit", metadata !5, i32 404, metadata !1009, i32 1, i32 1, i32 2} ; [ DW_TAG_variable ] [eofbit] [line 404] [local] [def]
!1011 = metadata !{i32 786484, i32 0, metadata !55, metadata !"failbit", metadata !"failbit", metadata !"failbit", metadata !5, i32 409, metadata !1009, i32 1, i32 1, i32 4} ; [ DW_TAG_variable ] [failbit] [line 409] [local] [def]
!1012 = metadata !{i32 786484, i32 0, metadata !55, metadata !"goodbit", metadata !"goodbit", metadata !"goodbit", metadata !5, i32 412, metadata !1009, i32 1, i32 1, i32 0} ; [ DW_TAG_variable ] [goodbit] [line 412] [local] [def]
!1013 = metadata !{i32 786484, i32 0, metadata !55, metadata !"app", metadata !"app", metadata !"app", metadata !5, i32 431, metadata !1014, i32 1, i32 1, i32 1} ; [ DW_TAG_variable ] [app] [line 431] [local] [def]
!1014 = metadata !{i32 786470, null, metadata !"", null, i32 0, i64 0, i64 0, i64 0, i32 0, metadata !1015} ; [ DW_TAG_const_type ] [line 0, size 0, align 0, offset 0] [from openmode]
!1015 = metadata !{i32 786454, metadata !55, metadata !"openmode", metadata !5, i32 428, i64 0, i64 0, i64 0, i32 0, metadata !37} ; [ DW_TAG_typedef ] [openmode] [line 428, size 0, align 0, offset 0] [from _Ios_Openmode]
!1016 = metadata !{i32 786484, i32 0, metadata !55, metadata !"ate", metadata !"ate", metadata !"ate", metadata !5, i32 434, metadata !1014, i32 1, i32 1, i32 2} ; [ DW_TAG_variable ] [ate] [line 434] [local] [def]
!1017 = metadata !{i32 786484, i32 0, metadata !55, metadata !"binary", metadata !"binary", metadata !"binary", metadata !5, i32 439, metadata !1014, i32 1, i32 1, i32 4} ; [ DW_TAG_variable ] [binary] [line 439] [local] [def]
!1018 = metadata !{i32 786484, i32 0, metadata !55, metadata !"in", metadata !"in", metadata !"in", metadata !5, i32 442, metadata !1014, i32 1, i32 1, i32 8} ; [ DW_TAG_variable ] [in] [line 442] [local] [def]
!1019 = metadata !{i32 786484, i32 0, metadata !55, metadata !"out", metadata !"out", metadata !"out", metadata !5, i32 445, metadata !1014, i32 1, i32 1, i32 16} ; [ DW_TAG_variable ] [out] [line 445] [local] [def]
!1020 = metadata !{i32 786484, i32 0, metadata !55, metadata !"trunc", metadata !"trunc", metadata !"trunc", metadata !5, i32 448, metadata !1014, i32 1, i32 1, i32 32} ; [ DW_TAG_variable ] [trunc] [line 448] [local] [def]
!1021 = metadata !{i32 786484, i32 0, metadata !55, metadata !"beg", metadata !"beg", metadata !"beg", metadata !5, i32 463, metadata !1022, i32 1, i32 1, i32 0} ; [ DW_TAG_variable ] [beg] [line 463] [local] [def]
!1022 = metadata !{i32 786470, null, metadata !"", null, i32 0, i64 0, i64 0, i64 0, i32 0, metadata !1023} ; [ DW_TAG_const_type ] [line 0, size 0, align 0, offset 0] [from seekdir]
!1023 = metadata !{i32 786454, metadata !55, metadata !"seekdir", metadata !5, i32 460, i64 0, i64 0, i64 0, i32 0, metadata !48} ; [ DW_TAG_typedef ] [seekdir] [line 460, size 0, align 0, offset 0] [from _Ios_Seekdir]
!1024 = metadata !{i32 786484, i32 0, metadata !55, metadata !"cur", metadata !"cur", metadata !"cur", metadata !5, i32 466, metadata !1022, i32 1, i32 1, i32 1} ; [ DW_TAG_variable ] [cur] [line 466] [local] [def]
!1025 = metadata !{i32 786484, i32 0, metadata !55, metadata !"end", metadata !"end", metadata !"end", metadata !5, i32 469, metadata !1022, i32 1, i32 1, i32 2} ; [ DW_TAG_variable ] [end] [line 469] [local] [def]
!1026 = metadata !{i32 786484, i32 0, metadata !100, metadata !"none", metadata !"none", metadata !"none", metadata !102, i32 97, metadata !1027, i32 1, i32 1, i32 0} ; [ DW_TAG_variable ] [none] [line 97] [local] [def]
!1027 = metadata !{i32 786470, null, metadata !"", null, i32 0, i64 0, i64 0, i64 0, i32 0, metadata !250} ; [ DW_TAG_const_type ] [line 0, size 0, align 0, offset 0] [from category]
!1028 = metadata !{i32 786484, i32 0, metadata !100, metadata !"ctype", metadata !"ctype", metadata !"ctype", metadata !102, i32 98, metadata !1027, i32 1, i32 1, i32 1} ; [ DW_TAG_variable ] [ctype] [line 98] [local] [def]
!1029 = metadata !{i32 786484, i32 0, metadata !100, metadata !"numeric", metadata !"numeric", metadata !"numeric", metadata !102, i32 99, metadata !1027, i32 1, i32 1, i32 2} ; [ DW_TAG_variable ] [numeric] [line 99] [local] [def]
!1030 = metadata !{i32 786484, i32 0, metadata !100, metadata !"collate", metadata !"collate", metadata !"collate", metadata !102, i32 100, metadata !1027, i32 1, i32 1, i32 4} ; [ DW_TAG_variable ] [collate] [line 100] [local] [def]
!1031 = metadata !{i32 786484, i32 0, metadata !100, metadata !"time", metadata !"time", metadata !"time", metadata !102, i32 101, metadata !1027, i32 1, i32 1, i32 8} ; [ DW_TAG_variable ] [time] [line 101] [local] [def]
!1032 = metadata !{i32 786484, i32 0, metadata !100, metadata !"monetary", metadata !"monetary", metadata !"monetary", metadata !102, i32 102, metadata !1027, i32 1, i32 1, i32 16} ; [ DW_TAG_variable ] [monetary] [line 102] [local] [def]
!1033 = metadata !{i32 786484, i32 0, metadata !100, metadata !"messages", metadata !"messages", metadata !"messages", metadata !102, i32 103, metadata !1027, i32 1, i32 1, i32 32} ; [ DW_TAG_variable ] [messages] [line 103] [local] [def]
!1034 = metadata !{i32 786484, i32 0, metadata !100, metadata !"all", metadata !"all", metadata !"all", metadata !102, i32 104, metadata !1027, i32 1, i32 1, i32 63} ; [ DW_TAG_variable ] [all] [line 104] [local] [def]
!1035 = metadata !{i32 786484, i32 0, metadata !305, metadata !"npos", metadata !"npos", metadata !"npos", metadata !126, i32 94, metadata !702, i32 1, i32 1, i64 -1} ; [ DW_TAG_variable ] [npos] [line 94] [local] [def]
!1036 = metadata !{i32 786484, i32 0, metadata !1037, metadata !"__ioinit", metadata !"__ioinit", metadata !"_ZStL8__ioinit", metadata !936, i32 73, metadata !1038, i32 1, i32 1, %"class.std::ios_base::Init"* @_ZStL8__ioinit} ; [ DW_TAG_variable ] [__ioinit] [line 73] [local] [def]
!1037 = metadata !{i32 786489, null, metadata !"std", metadata !936, i32 41} ; [ DW_TAG_namespace ] [/home/mingyuanwu/gklee//usr/lib/gcc/x86_64-linux-gnu/5.4.0/../../../../include/c++/5.4.0/iostream]
!1038 = metadata !{i32 786434, metadata !55, metadata !"Init", metadata !5, i32 600, i64 8, i64 8, i32 0, i32 0, null, metadata !1039, i32 0, null, null} ; [ DW_TAG_class_type ] [Init] [line 600, size 8, align 8, offset 0] [from ]
!1039 = metadata !{metadata !1040, metadata !1044, metadata !1045}
!1040 = metadata !{i32 786478, i32 0, metadata !1038, metadata !"Init", metadata !"Init", metadata !"", metadata !5, i32 604, metadata !1041, i1 false, i1 false, i32 0, i32 0, null, i32 256, i1 false, null, null, i32 0, metadata !90, i32 604} ; [ DW_TAG_subprogram ] [line 604] [Init]
!1041 = metadata !{i32 786453, i32 0, metadata !"", i32 0, i32 0, i64 0, i64 0, i64 0, i32 0, null, metadata !1042, i32 0, i32 0} ; [ DW_TAG_subroutine_type ] [line 0, size 0, align 0, offset 0] [from ]
!1042 = metadata !{null, metadata !1043}
!1043 = metadata !{i32 786447, i32 0, metadata !"", i32 0, i32 0, i64 64, i64 64, i64 0, i32 1088, metadata !1038} ; [ DW_TAG_pointer_type ] [line 0, size 64, align 64, offset 0] [from Init]
!1044 = metadata !{i32 786478, i32 0, metadata !1038, metadata !"~Init", metadata !"~Init", metadata !"", metadata !5, i32 605, metadata !1041, i1 false, i1 false, i32 0, i32 0, null, i32 256, i1 false, null, null, i32 0, metadata !90, i32 605} ; [ DW_TAG_subprogram ] [line 605] [~Init]
!1045 = metadata !{i32 786474, metadata !1038, null, metadata !5, i32 0, i64 0, i64 0, i64 0, i32 0, metadata !55} ; [ DW_TAG_friend ] [line 0, size 0, align 0, offset 0] [from ios_base]
!1046 = metadata !{i32 73, i32 0, metadata !935, null}
!1047 = metadata !{i32 786689, metadata !937, metadata !"in", metadata !938, i32 16777226, metadata !941, i32 0, i32 0} ; [ DW_TAG_arg_variable ] [in] [line 10]
!1048 = metadata !{i32 10, i32 0, metadata !937, null}
!1049 = metadata !{i32 786688, metadata !1050, metadata !"tidx", metadata !938, i32 12, metadata !62, i32 0, i32 0} ; [ DW_TAG_auto_variable ] [tidx] [line 12]
!1050 = metadata !{i32 786443, metadata !937, i32 11, i32 0, metadata !938, i32 0} ; [ DW_TAG_lexical_block ] [/home/mingyuanwu/gklee/conel.cpp]
!1051 = metadata !{i32 12, i32 0, metadata !1050, null}
!1052 = metadata !{i32 13, i32 0, metadata !1050, null}
!1053 = metadata !{i32 14, i32 0, metadata !1050, null}
!1054 = metadata !{i32 786688, metadata !1055, metadata !"in", metadata !938, i32 18, metadata !941, i32 0, i32 0} ; [ DW_TAG_auto_variable ] [in] [line 18]
!1055 = metadata !{i32 786443, metadata !942, i32 17, i32 0, metadata !938, i32 1} ; [ DW_TAG_lexical_block ] [/home/mingyuanwu/gklee/conel.cpp]
!1056 = metadata !{i32 18, i32 0, metadata !1055, null}
!1057 = metadata !{i32 786688, metadata !1055, metadata !"din", metadata !938, i32 19, metadata !941, i32 0, i32 0} ; [ DW_TAG_auto_variable ] [din] [line 19]
!1058 = metadata !{i32 19, i32 0, metadata !1055, null}
!1059 = metadata !{i32 20, i32 0, metadata !1055, null}
!1060 = metadata !{i32 22, i32 0, metadata !1055, null}
!1061 = metadata !{i32 23, i32 0, metadata !1062, null}
!1062 = metadata !{i32 786443, metadata !1055, i32 23, i32 0, metadata !938, i32 2} ; [ DW_TAG_lexical_block ] [/home/mingyuanwu/gklee/conel.cpp]
!1063 = metadata !{i32 25, i32 0, metadata !1062, null}
!1064 = metadata !{i32 28, i32 0, metadata !1055, null}
!1065 = metadata !{i32 786688, metadata !1066, metadata !"i", metadata !938, i32 30, metadata !62, i32 0, i32 0} ; [ DW_TAG_auto_variable ] [i] [line 30]
!1066 = metadata !{i32 786443, metadata !1055, i32 30, i32 0, metadata !938, i32 3} ; [ DW_TAG_lexical_block ] [/home/mingyuanwu/gklee/conel.cpp]
!1067 = metadata !{i32 30, i32 0, metadata !1066, null}
!1068 = metadata !{i32 31, i32 0, metadata !1066, null}
!1069 = metadata !{i32 32, i32 0, metadata !1055, null}
!1070 = metadata !{i32 33, i32 0, metadata !1055, null}
!1071 = metadata !{i32 34, i32 0, metadata !1055, null}
!1072 = metadata !{i32 786689, metadata !943, metadata !"this", metadata !944, i32 16777635, metadata !1073, i32 1088, i32 0} ; [ DW_TAG_arg_variable ] [this] [line 419]
!1073 = metadata !{i32 786447, null, metadata !"", null, i32 0, i64 64, i64 64, i64 0, i32 0, metadata !948} ; [ DW_TAG_pointer_type ] [line 0, size 64, align 64, offset 0] [from dim3]
!1074 = metadata !{i32 419, i32 0, metadata !943, null}
!1075 = metadata !{i32 786689, metadata !943, metadata !"vx", metadata !944, i32 33554851, metadata !951, i32 0, i32 0} ; [ DW_TAG_arg_variable ] [vx] [line 419]
!1076 = metadata !{i32 786689, metadata !943, metadata !"vy", metadata !944, i32 50332067, metadata !951, i32 0, i32 0} ; [ DW_TAG_arg_variable ] [vy] [line 419]
!1077 = metadata !{i32 786689, metadata !943, metadata !"vz", metadata !944, i32 67109283, metadata !951, i32 0, i32 0} ; [ DW_TAG_arg_variable ] [vz] [line 419]
!1078 = metadata !{i32 786689, metadata !984, metadata !"this", metadata !944, i32 16777635, metadata !1073, i32 1088, i32 0} ; [ DW_TAG_arg_variable ] [this] [line 419]
!1079 = metadata !{i32 419, i32 0, metadata !984, null}
!1080 = metadata !{i32 786689, metadata !984, metadata !"vx", metadata !944, i32 33554851, metadata !951, i32 0, i32 0} ; [ DW_TAG_arg_variable ] [vx] [line 419]
!1081 = metadata !{i32 786689, metadata !984, metadata !"vy", metadata !944, i32 50332067, metadata !951, i32 0, i32 0} ; [ DW_TAG_arg_variable ] [vy] [line 419]
!1082 = metadata !{i32 786689, metadata !984, metadata !"vz", metadata !944, i32 67109283, metadata !951, i32 0, i32 0} ; [ DW_TAG_arg_variable ] [vz] [line 419]
!1083 = metadata !{i32 419, i32 0, metadata !1084, null}
!1084 = metadata !{i32 786443, metadata !984, i32 419, i32 0, metadata !944, i32 4} ; [ DW_TAG_lexical_block ] [/home/mingyuanwu/gklee//home/mingyuanwu/gklee/Gklee/Gklee/include/cuda/vector_types.h]
!1085 = metadata !{i32 419, i32 0, metadata !985, null}
